CSWTCH.230
FT_Add_Default_Modules
FT_Done_Face
FT_Done_Library
FT_Done_MM_Var
FT_Face_GetCharVariantIndex
FT_Get_Advance
FT_Get_Char_Index
FT_Get_Glyph_Name
FT_Get_Kerning
FT_Get_MM_Var
FT_Get_Name_Index
FT_Get_Var_Blend_Coordinates
FT_Load_Glyph
FT_Load_Sfnt_Table
FT_MulFix
FT_New_Face
FT_New_Library
FT_New_Memory_Face
FT_Outline_Decompose
FT_Outline_EmboldenXY
FT_Reference_Face
FT_Reference_Library
FT_Select_Charmap
FT_Set_Char_Size
FT_Set_Default_Properties
FT_Set_Transform
FT_Set_Var_Design_Coordinates
FT_Sfnt_Table_Info
_DYNAMIC
_GLOBAL_OFFSET_TABLE_
_ITM_deregisterTMCloneTable
_ITM_registerTMCloneTable
_Z12apply_stringI9GSUBProxyEbPN2OT21hb_ot_apply_context_tERKNT_6LookupERKNS1_33hb_ot_layout_lookup_accelerator_tE.part.0
_Z12hb_parse_intPPKcS0_Pib
_Z13hb_parse_uintPPKcS0_Pjbi
_Z13sort_r_simpleIJEEvPvmmPFiPKvS2_DpT_ES4_.constprop.0
_Z13sort_r_simpleIJEEvPvmmPFiPKvS2_DpT_ES4_.constprop.0
_Z13sort_r_simpleIJEEvPvmmPFiPKvS2_DpT_ES4_.constprop.0
_Z13sort_r_simpleIJEEvPvmmPFiPKvS2_DpT_ES4_.constprop.0
_Z13sort_r_simpleIJEEvPvmmPFiPKvS2_DpT_ES4_.constprop.0
_Z13sort_r_simpleIJEEvPvmmPFiPKvS2_DpT_ES4_.constprop.0
_Z13sort_r_simpleIJEEvPvmmPFiPKvS2_DpT_ES4_.constprop.1
_Z13sort_r_simpleIJEEvPvmmPFiPKvS2_DpT_ES4_.constprop.1
_Z13sort_r_simpleIJEEvPvmmPFiPKvS2_DpT_ES4_.constprop.1
_Z13sort_r_simpleIJEEvPvmmPFiPKvS2_DpT_ES4_.constprop.2
_Z13sort_r_simpleIJEEvPvmmPFiPKvS2_DpT_ES4_.constprop.2
_Z13sort_r_simpleIJPvEEvS0_mmPFiPKvS2_DpT_ES4_.constprop.0
_Z14hb_object_finiI12hb_hashmap_tIj8hb_set_tLb0EEEvPT_
_Z14hb_object_finiI12hb_hashmap_tIjN2hb10unique_ptrI8hb_set_tEELb0EEEvPT_
_Z14hb_object_finiI12hb_hashmap_tIjjLb1EEEvPT_
_Z14hb_object_finiI14hb_sparseset_tI23hb_bit_set_invertible_tEEvPT_
_Z14hb_object_initI12hb_hashmap_tIjN2hb10unique_ptrI8hb_set_tEELb0EEEvPT_
_Z14hb_object_initI12hb_hashmap_tIjjLb1EEEvPT_
_Z14hb_object_initI14hb_sparseset_tI23hb_bit_set_invertible_tEEvPT_
_Z15_hb_shapers_getv
_Z15hb_parse_doublePPKcS0_Pdb
_Z16_hb_options_initv
_Z17hb_ot_layout_kernPK18hb_ot_shape_plan_tP9hb_font_tP11hb_buffer_t
_Z18data_create_arabicPK18hb_ot_shape_plan_t
_Z19data_destroy_arabicPv
_Z19hb_aat_layout_trackPK18hb_ot_shape_plan_tP9hb_font_tP11hb_buffer_t
_Z20find_syllables_indicP11hb_buffer_t
_Z21hb_syllabic_clear_varPK18hb_ot_shape_plan_tP9hb_font_tP11hb_buffer_t
_Z22_hb_ot_shape_normalizePK18hb_ot_shape_plan_tP11hb_buffer_tP9hb_font_t
_Z22hb_aat_layout_positionPK18hb_ot_shape_plan_tP9hb_font_tP11hb_buffer_t
_Z23hb_indic_get_categoriesj
_Z23setup_masks_arabic_planPK19arabic_shape_plan_tP11hb_buffer_t11hb_script_t
_Z24hb_aat_layout_substitutePK18hb_ot_shape_plan_tP9hb_font_tP11hb_buffer_tPK12hb_feature_tj
_Z24hb_ot_layout_has_kerningP9hb_face_t
_Z25hb_aat_layout_compile_mapPK20hb_aat_map_builder_tP12hb_aat_map_t
_Z26_hb_ot_shape_fallback_kernPK18hb_ot_shape_plan_tP9hb_font_tP11hb_buffer_t
_Z26hb_paint_extents_get_funcsv
_Z27hb_ot_layout_position_startP9hb_font_tP11hb_buffer_t
_Z28_hb_ot_shape_fallback_spacesPK18hb_ot_shape_plan_tP9hb_font_tP11hb_buffer_t
_Z29hb_ot_layout_substitute_startP9hb_font_tP11hb_buffer_t
_Z30hb_ot_layout_has_cross_kerningP9hb_face_t
_Z30hb_ot_layout_substitute_lookupPN2OT21hb_ot_apply_context_tERKNS_6Layout9GSUB_impl11SubstLookupERKNS_33hb_ot_layout_lookup_accelerator_tE
_Z31hb_ot_layout_table_find_featureP9hb_face_tjjPj
_Z32_hb_ot_name_language_for_ms_codej
_Z32hb_ot_layout_has_machine_kerningP9hb_face_t
_Z33_hb_ot_name_language_for_mac_codej
_Z33hb_syllabic_insert_dotted_circlesP9hb_font_tP11hb_buffer_tjjii
_Z34_hb_ot_metrics_get_position_commonP9hb_font_t19hb_ot_metrics_tag_tPi
_Z34hb_aat_layout_find_feature_mappingj
_Z34hb_outline_recording_pen_get_funcsv
_Z35_glyf_get_advance_with_var_unscaledP9hb_font_tjb
_Z35_hb_ot_shape_fallback_mark_positionPK18hb_ot_shape_plan_tP9hb_font_tP11hb_buffer_tb
_Z35hb_aat_layout_remove_deleted_glyphsP11hb_buffer_t
_Z36hb_ot_layout_position_finish_offsetsP9hb_font_tP11hb_buffer_t
_Z37_hb_preprocess_text_vowel_constraintsPK18hb_ot_shape_plan_tP11hb_buffer_tP9hb_font_t
_Z37hb_ot_layout_position_finish_advancesP9hb_font_tP11hb_buffer_t
_Z39hb_aat_layout_zero_width_deleted_glyphsP11hb_buffer_t
_Z3endIR8hb_set_tLPv0EEDTcldtclL_ZL7hb_iterEfp_E3endEEOT_
_Z3endIRK8hb_set_tLPv0EEDTcldtclL_ZL7hb_iterEfp_E3endEEOT_
_Z42_hb_unicode_is_emoji_Extended_Pictographicj
_Z42arabic_fallback_synthesize_lookup_ligatureIA18_14ligature_set_tEPN2OT6Layout9GSUB_impl11SubstLookupEPK18hb_ot_shape_plan_tP9hb_font_tRKT_j.constprop.0
_Z42arabic_fallback_synthesize_lookup_ligatureIA1_16ligature_3_set_tEPN2OT6Layout9GSUB_impl11SubstLookupEPK18hb_ot_shape_plan_tP9hb_font_tRKT_j.constprop.0
_Z42arabic_fallback_synthesize_lookup_ligatureIA1_19ligature_mark_set_tEPN2OT6Layout9GSUB_impl11SubstLookupEPK18hb_ot_shape_plan_tP9hb_font_tRKT_j.constprop.0
_Z43_glyf_get_leading_bearing_with_var_unscaledP9hb_font_tjbPi
_Z46_glyf_get_leading_bearing_without_var_unscaledP9hb_face_tjbPi
_Z4swapR23hb_bit_set_invertible_tS0_.part.0
_Z54_hb_ot_shape_fallback_mark_position_recategorize_marksPK18hb_ot_shape_plan_tP9hb_font_tP11hb_buffer_t
_ZL10_hb_ucd_u8
_ZL10fasthash64PKvmm.constprop.0
_ZL10free_langsv
_ZL10hb_use_u16
_ZL10table_tags
_ZL11_get_boundsPKN2OT4cff113accelerator_tEjR8bounds_tb
_ZL11_hb_ft_freeP13FT_MemoryRec_Pv
_ZL11_hb_ucd_i16
_ZL11_hb_ucd_u16
_ZL11compose_usePK31hb_ot_shape_normalize_context_tjjPj
_ZL11hb_identity
_ZL11indic_table
_ZL11record_stchPK18hb_ot_shape_plan_tP9hb_font_tP11hb_buffer_t
_ZL11reorder_usePK18hb_ot_shape_plan_tP9hb_font_tP11hb_buffer_t
_ZL12_hb_emoji_u8
_ZL12_hb_ft_allocP13FT_MemoryRec_l
_ZL12joining_typej
_ZL13_hb_arabic_u8
_ZL13_hb_arabic_u8
_ZL13_hb_arabic_u8
_ZL13_release_blobPv
_ZL13apply_forwardPN2OT21hb_ot_apply_context_tERKNS_33hb_ot_layout_lookup_accelerator_tEj.isra.0
_ZL13compose_indicPK31hb_ot_shape_normalize_context_tjjPj
_ZL13compose_khmerPK31hb_ot_shape_normalize_context_tjjPj
_ZL13format1_namesj.part.0
_ZL13hb_ucd_scriptP18hb_unicode_funcs_tjPv
_ZL13indic_configs
_ZL13joining_table
_ZL13ot_languages2
_ZL13ot_languages3
_ZL13reorder_khmerPK18hb_ot_shape_plan_tP9hb_font_tP11hb_buffer_t
_ZL13shaping_table
_ZL14_hb_arabic_u16
_ZL14_hb_arabic_u16
_ZL14_hb_arabic_u16
_ZL14_hb_ft_line_toPK10FT_Vector_Pv
_ZL14_hb_ft_move_toPK10FT_Vector_Pv
_ZL14_hb_ft_reallocP13FT_MemoryRec_llPv
_ZL14_hb_ucd_sc_map
_ZL14compose_hebrewPK31hb_ot_shape_normalize_context_tjjPj
_ZL14ft_library_key
_ZL14hb_ucd_composeP18hb_unicode_funcs_tjjPjPv
_ZL14indic_features
_ZL14khmer_features
_ZL14ligature_table
_ZL14static_shapers
_ZL14subtag_matchesPKcS0_S0_j.part.0
_ZL15_hb_all_shapers
_ZL15_hb_font_createP9hb_face_t
_ZL15_hb_ft_conic_toPK10FT_Vector_S1_Pv
_ZL15_hb_ft_cubic_toPK10FT_Vector_S1_S1_Pv
_ZL15arabic_features
_ZL15common_features
_ZL15compare_entriesPKvS0_
_ZL15data_create_usePK18hb_ot_shape_plan_t
_ZL15decompose_indicPK31hb_ot_shape_normalize_context_tjPjS2_
_ZL15decompose_khmerPK31hb_ot_shape_normalize_context_tjPjS2_
_ZL15hangul_features
_ZL15nil_shaper_list
_ZL15record_pref_usePK18hb_ot_shape_plan_tP9hb_font_tP11hb_buffer_t
_ZL15record_rphf_usePK18hb_ot_shape_plan_tP9hb_font_tP11hb_buffer_t
_ZL15reorder_myanmarPK18hb_ot_shape_plan_tP9hb_font_tP11hb_buffer_t
_ZL15setup_masks_usePK18hb_ot_shape_plan_tP11hb_buffer_tP9hb_font_t
_ZL15static_C_locale
_ZL15static_ft_funcs
_ZL15static_ot_funcs
_ZL16_hb_blob_destroyPv
_ZL16cff1_std_stringsj.part.0
_ZL16data_destroy_usePv
_ZL16feature_mappings
_ZL16hb_ft_draw_glyphP9hb_font_tPvjP15hb_draw_funcs_tS1_S1_
_ZL16hb_ot_draw_glyphP9hb_font_tPvjP15hb_draw_funcs_tS1_S1_
_ZL16hb_ucd_decomposeP18hb_unicode_funcs_tjPjS1_Pv
_ZL16hb_ucd_mirroringP18hb_unicode_funcs_tjPv
_ZL16is_deleted_glyphPK15hb_glyph_info_t
_ZL16ligature_3_table
_ZL16position_clusterPK18hb_ot_shape_plan_tP9hb_font_tP11hb_buffer_tjjb
_ZL16static_ucd_funcs
_ZL17_hb_g_bytes_unrefPv
_ZL17data_create_indicPK18hb_ot_shape_plan_t
_ZL17data_create_khmerPK18hb_ot_shape_plan_t
_ZL17direction_strings
_ZL17hb_ot_paint_glyphP9hb_font_tPvjP16hb_paint_funcs_tS1_jjS1_
_ZL17setup_masks_indicPK18hb_ot_shape_plan_tP11hb_buffer_tP9hb_font_t
_ZL17setup_masks_khmerPK18hb_ot_shape_plan_tP11hb_buffer_tP9hb_font_t
_ZL17static_ft_library
_ZL17static_glib_funcs
_ZL18_hb_ucd_dm1_p0_map
_ZL18_hb_ucd_dm1_p2_map
_ZL18arabic_state_table
_ZL18data_create_hangulPK18hb_ot_shape_plan_t
_ZL18data_destroy_indicPv
_ZL18data_destroy_khmerPv
_ZL18destroy_ft_libraryPv
_ZL18find_syllables_useP11hb_buffer_t
_ZL18find_syllables_useP11hb_buffer_t.cold
_ZL18get_gsubgpos_tableP9hb_face_tj
_ZL18hb_paint_color_nilP16hb_paint_funcs_tPvijS1_
_ZL18hb_paint_image_nilP16hb_paint_funcs_tPvP9hb_blob_tjjjfP18hb_glyph_extents_tS1_
_ZL18setup_masks_arabicPK18hb_ot_shape_plan_tP11hb_buffer_tP9hb_font_t
_ZL18setup_masks_hangulPK18hb_ot_shape_plan_tP11hb_buffer_tP9hb_font_t
_ZL18static_endchar_str
_ZL18static_shaper_list
_ZL18trampoline_destroyPv
_ZL18use_basic_features
_ZL18use_other_features
_ZL19_hb_ft_face_destroyPv
_ZL19_hb_ft_font_destroyPv
_ZL19_hb_ms_language_map
_ZL19_hb_ot_font_destroyPv
_ZL19_hb_ucd_dm2_u32_map
_ZL19_hb_ucd_dm2_u64_map
_ZL19buffer_verify_errorP11hb_buffer_tP9hb_font_tPKcz
_ZL19data_destroy_hangulPv
_ZL19finalize_ft_libraryPv
_ZL19free_static_shapersv
_ZL19hb_draw_line_to_nilP15hb_draw_funcs_tPvP15hb_draw_state_tffS1_
_ZL19hb_draw_move_to_nilP15hb_draw_funcs_tPvP15hb_draw_state_tffS1_
_ZL19hb_ft_face_finalizePv
_ZL19horizontal_features
_ZL19lang_find_or_insertPKc
_ZL19ligature_mark_table
_ZL19preprocess_text_usePK18hb_ot_shape_plan_tP11hb_buffer_tP9hb_font_t
_ZL19setup_masks_myanmarPK18hb_ot_shape_plan_tP11hb_buffer_tP9hb_font_t
_ZL19setup_syllables_usePK18hb_ot_shape_plan_tP9hb_font_tP11hb_buffer_t
_ZL1m
_ZL20_hb_mac_language_map
_ZL20collect_features_useP21hb_ot_shape_planner_t
_ZL20format1_names_msgidx
_ZL20format1_names_msgstr
_ZL20free_static_C_localev
_ZL20free_static_ft_funcsv
_ZL20free_static_ot_funcsv
_ZL20hb_draw_cubic_to_nilP15hb_draw_funcs_tPvP15hb_draw_state_tffffffS1_
_ZL20hb_ft_get_glyph_nameP9hb_font_tPvjPcjS1_
_ZL20hb_ot_get_glyph_nameP9hb_font_tPvjPcjS1_
_ZL20preprocess_text_thaiPK18hb_ot_shape_plan_tP11hb_buffer_tP9hb_font_t
_ZL20reference_ft_libraryv
_ZL20reorder_marks_arabicPK18hb_ot_shape_plan_tP11hb_buffer_tjj
_ZL20reorder_marks_hebrewPK18hb_ot_shape_plan_tP11hb_buffer_tjj
_ZL21_hb_ft_font_set_funcsP9hb_font_tP11FT_FaceRec_b
_ZL21_hb_ft_get_table_tagsPK9hb_face_tjPjS2_Pv
_ZL21_output_dotted_circleP11hb_buffer_t
_ZL21arabic_fallback_shapePK18hb_ot_shape_plan_tP9hb_font_tP11hb_buffer_t
_ZL21compare_myanmar_orderPK15hb_glyph_info_tS1_
_ZL21deallocate_buffer_varPK18hb_ot_shape_plan_tP9hb_font_tP11hb_buffer_t
_ZL21expert_charset_to_sid
_ZL21free_static_ucd_funcsv
_ZL21hb_paint_pop_clip_nilP16hb_paint_funcs_tPvS1_
_ZL21hb_unicode_script_nilP18hb_unicode_funcs_tjPv
_ZL21preprocess_text_indicPK18hb_ot_shape_plan_tP11hb_buffer_tP9hb_font_t
_ZL21setup_syllables_indicPK18hb_ot_shape_plan_tP9hb_font_tP11hb_buffer_t
_ZL21setup_syllables_khmerPK18hb_ot_shape_plan_tP9hb_font_tP11hb_buffer_t
_ZL22_hb_draw_funcs_default
_ZL22_hb_font_funcs_default
_ZL22_hb_ft_hb_font_changedP9hb_font_tP11FT_FaceRec_
_ZL22_hb_ft_reference_tableP9hb_face_tjPv
_ZL22collect_features_indicP21hb_ot_shape_planner_t
_ZL22collect_features_khmerP21hb_ot_shape_planner_t
_ZL22final_reordering_indicPK18hb_ot_shape_plan_tP9hb_font_tP11hb_buffer_t
_ZL22free_static_ft_libraryv
_ZL22free_static_glib_funcsv
_ZL22hb_draw_close_path_nilP15hb_draw_funcs_tPvP15hb_draw_state_tS1_
_ZL22hb_font_draw_glyph_nilP9hb_font_tPvjP15hb_draw_funcs_tS1_S1_
_ZL22hb_glib_unicode_scriptP18hb_unicode_funcs_tjPv
_ZL22hb_paint_pop_group_nilP16hb_paint_funcs_tPv25hb_paint_composite_mode_tS1_
_ZL22hb_ucd_combining_classP18hb_unicode_funcs_tjPv
_ZL22hb_unicode_compose_nilP18hb_unicode_funcs_tjjPjPv
_ZL22myanmar_basic_features
_ZL22myanmar_other_features
_ZL22preprocess_text_hangulPK18hb_ot_shape_plan_tP11hb_buffer_tP9hb_font_t
_ZL23_double_parser_indicies
_ZL23_hb_mapped_file_destroyPv
_ZL23cff1_std_strings_msgidx
_ZL23cff1_std_strings_msgstr
_ZL23collect_features_arabicP21hb_ot_shape_planner_t
_ZL23collect_features_hangulP21hb_ot_shape_planner_t
_ZL23compare_combining_classPK15hb_glyph_info_tS1_
_ZL23expert_encoding_to_code
_ZL23free_static_shaper_listv
_ZL23hb_draw_extents_line_toP15hb_draw_funcs_tPvP15hb_draw_state_tffS1_
_ZL23hb_draw_extents_move_toP15hb_draw_funcs_tPvP15hb_draw_state_tffS1_
_ZL23hb_draw_line_to_defaultP15hb_draw_funcs_tPvP15hb_draw_state_tffS1_
_ZL23hb_draw_move_to_defaultP15hb_draw_funcs_tPvP15hb_draw_state_tffS1_
_ZL23hb_font_paint_glyph_nilP9hb_font_tPvjP16hb_paint_funcs_tS1_jjS1_
_ZL23hb_ft_get_glyph_extentsP9hb_font_tPvjP18hb_glyph_extents_tS1_
_ZL23hb_ft_get_nominal_glyphP9hb_font_tPvjPjS1_
_ZL23hb_glib_unicode_composeP18hb_unicode_funcs_tjjPjPv
_ZL23hb_ot_get_glyph_extentsP9hb_font_tPvjP18hb_glyph_extents_tS1_
_ZL23hb_ot_get_nominal_glyphP9hb_font_tPvjPjS1_
_ZL23hb_paint_push_group_nilP16hb_paint_funcs_tPvS1_
_ZL23hb_ucd_general_categoryP18hb_unicode_funcs_tjPv
_ZL23override_features_indicP21hb_ot_shape_planner_t
_ZL23override_features_khmerP21hb_ot_shape_planner_t
_ZL23script_collect_featuresP29hb_collect_features_context_tRKN2OT6ScriptEPKj
_ZL23setup_syllables_myanmarPK18hb_ot_shape_plan_tP9hb_font_tP11hb_buffer_t
_ZL24_double_parser_key_spans
_ZL24arabic_fallback_features
_ZL24collect_features_myanmarP21hb_ot_shape_planner_t
_ZL24hb_draw_cubic_to_defaultP15hb_draw_funcs_tPvP15hb_draw_state_tffffffS1_
_ZL24hb_draw_extents_cubic_toP15hb_draw_funcs_tPvP15hb_draw_state_tffffffS1_
_ZL24hb_draw_quadratic_to_nilP15hb_draw_funcs_tPvP15hb_draw_state_tffffS1_
_ZL24hb_ft_get_font_h_extentsP9hb_font_tPvP17hb_font_extents_tS1_
_ZL24hb_ft_get_glyph_v_originP9hb_font_tPvjPiS2_S1_
_ZL24hb_ft_get_nominal_glyphsP9hb_font_tPvjPKjjPjjS1_
_ZL24hb_ot_get_font_h_extentsP9hb_font_tPvP17hb_font_extents_tS1_
_ZL24hb_ot_get_font_v_extentsP9hb_font_tPvP17hb_font_extents_tS1_
_ZL24hb_ot_get_glyph_v_originP9hb_font_tPvjPiS2_S1_
_ZL24hb_ot_get_nominal_glyphsP9hb_font_tPvjPKjjPjjS1_
_ZL24hb_paint_color_glyph_nilP16hb_paint_funcs_tPvjP9hb_font_tS1_
_ZL24hb_unicode_decompose_nilP18hb_unicode_funcs_tjPjS1_Pv
_ZL24hb_unicode_mirroring_nilP18hb_unicode_funcs_tjPv
_ZL24initial_reordering_indicPK18hb_ot_shape_plan_tP9hb_font_tP11hb_buffer_t
_ZL24langsys_collect_featuresP29hb_collect_features_context_tRKN2OT7LangSysE
_ZL24override_features_hangulP21hb_ot_shape_planner_t
_ZL24standard_encoding_to_sid
_ZL24thai_above_state_machine
_ZL24thai_below_state_machine
_ZL25_double_parser_trans_keys
_ZL25expert_charset_sid_to_gid
_ZL25hb_ft_get_glyph_from_nameP9hb_font_tPvPKciPjS1_
_ZL25hb_ft_get_glyph_h_kerningP9hb_font_tPvjjS1_
_ZL25hb_ft_get_glyph_v_advanceP9hb_font_tPvjS1_
_ZL25hb_ft_get_variation_glyphP9hb_font_tPvjjPjS1_
_ZL25hb_glib_unicode_decomposeP18hb_unicode_funcs_tjPjS1_Pv
_ZL25hb_glib_unicode_mirroringP18hb_unicode_funcs_tjPv
_ZL25hb_ot_get_glyph_from_nameP9hb_font_tPvPKciPjS1_
_ZL25hb_ot_get_variation_glyphP9hb_font_tPvjjPjS1_
_ZL25hb_paint_extents_pop_clipP16hb_paint_funcs_tPvS1_
_ZL25postprocess_glyphs_arabicPK18hb_ot_shape_plan_tP11hb_buffer_tP9hb_font_t
_ZL25standard_encoding_to_code
_ZL25static_draw_extents_funcs
_ZL26_deserialize_json_indicies
_ZL26_double_parser_trans_targs
_ZL26arabic_fallback_plan_shapeP22arabic_fallback_plan_tP9hb_font_tP11hb_buffer_t
_ZL26hb_draw_close_path_defaultP15hb_draw_funcs_tPvP15hb_draw_state_tS1_
_ZL26hb_font_draw_glyph_defaultP9hb_font_tPvjP15hb_draw_funcs_tS1_S1_
_ZL26hb_font_get_glyph_name_nilP9hb_font_tPvjPcjS1_
_ZL26hb_ft_get_glyph_h_advancesP9hb_font_tPvjPKjjPijS1_
_ZL26hb_ot_get_glyph_h_advancesP9hb_font_tPvjPKjjPijS1_
_ZL26hb_ot_get_glyph_v_advancesP9hb_font_tPvjPKjjPijS1_
_ZL26hb_paint_extents_pop_groupP16hb_paint_funcs_tPv25hb_paint_composite_mode_tS1_
_ZL26hb_paint_pop_transform_nilP16hb_paint_funcs_tPvS1_
_ZL26static_paint_extents_funcs
_ZL26use_topographical_features
_ZL27_deserialize_json_key_spans
_ZL27_hb_buffer_deserialize_jsonP11hb_buffer_tPKcjPS2_P9hb_font_t
_ZL27decompose_current_characterPK31hb_ot_shape_normalize_context_tb
_ZL27hb_font_paint_glyph_defaultP9hb_font_tPvjP16hb_paint_funcs_tS1_jjS1_
_ZL27hb_paint_extents_push_groupP16hb_paint_funcs_tPvS1_
_ZL27hb_paint_push_transform_nilP16hb_paint_funcs_tPvffffffS1_
_ZL27hb_paint_sweep_gradient_nilP16hb_paint_funcs_tPvP15hb_color_line_tffffS1_
_ZL28_deserialize_json_trans_keys
_ZL28_double_parser_index_offsets
_ZL28_double_parser_trans_actions
_ZL28_hb_buffer_serialize_formats
_ZL28_hb_clear_substitution_flagsPK18hb_ot_shape_plan_tP9hb_font_tP11hb_buffer_t
_ZL28expert_subset_charset_to_sid
_ZL28hb_draw_extents_quadratic_toP15hb_draw_funcs_tPvP15hb_draw_state_tffffS1_
_ZL28hb_draw_quadratic_to_defaultP15hb_draw_funcs_tPvP15hb_draw_state_tffffS1_
_ZL28hb_paint_extents_paint_colorP16hb_paint_funcs_tPvijS1_
_ZL28hb_paint_extents_paint_imageP16hb_paint_funcs_tPvP9hb_blob_tjjjfP18hb_glyph_extents_tS1_
_ZL28hb_paint_linear_gradient_nilP16hb_paint_funcs_tPvP15hb_color_line_tffffffS1_
_ZL28hb_paint_push_clip_glyph_nilP16hb_paint_funcs_tPvjP9hb_font_tS1_
_ZL28hb_paint_radial_gradient_nilP16hb_paint_funcs_tPvP15hb_color_line_tffffffS1_
_ZL29_deserialize_json_trans_targs
_ZL29_hb_face_builder_data_destroyPv
_ZL29hb_font_get_glyph_extents_nilP9hb_font_tPvjP18hb_glyph_extents_tS1_
_ZL29hb_font_get_nominal_glyph_nilP9hb_font_tPvjPjS1_
_ZL29hb_ft_get_glyph_contour_pointP9hb_font_tPvjjPiS2_S1_
_ZL30_use_syllable_machine_indicies
_ZL30free_static_draw_extents_funcsv
_ZL30hb_font_get_font_h_extents_nilP9hb_font_tPvP17hb_font_extents_tS1_
_ZL30hb_font_get_font_v_extents_nilP9hb_font_tPvP17hb_font_extents_tS1_
_ZL30hb_font_get_glyph_h_origin_nilP9hb_font_tPvjPiS2_S1_
_ZL30hb_font_get_glyph_name_defaultP9hb_font_tPvjPcjS1_
_ZL30hb_font_get_glyph_v_origin_nilP9hb_font_tPvjPiS2_S1_
_ZL30hb_paint_extents_pop_transformP16hb_paint_funcs_tPvS1_
_ZL30hb_unicode_combining_class_nilP18hb_unicode_funcs_tjPv
_ZL30hb_unicode_eastasian_width_nilP18hb_unicode_funcs_tjPv
_ZL31_deserialize_json_index_offsets
_ZL31_deserialize_json_trans_actions
_ZL31_hb_face_builder_get_table_tagsPK9hb_face_tjPjS2_Pv
_ZL31_use_syllable_machine_eof_trans
_ZL31_use_syllable_machine_key_spans
_ZL31free_static_paint_extents_funcsv
_ZL31hb_font_get_glyph_from_name_nilP9hb_font_tPvPKciPjS1_
_ZL31hb_font_get_glyph_h_advance_nilP9hb_font_tPvjS1_
_ZL31hb_font_get_glyph_h_kerning_nilP9hb_font_tPvjjS1_
_ZL31hb_font_get_glyph_v_advance_nilP9hb_font_tPvjS1_
_ZL31hb_font_get_glyph_v_kerning_nilP9hb_font_tPvjjS1_
_ZL31hb_font_get_variation_glyph_nilP9hb_font_tPvjjPjS1_
_ZL31hb_glib_unicode_combining_classP18hb_unicode_funcs_tjPv
_ZL31hb_paint_extents_push_transformP16hb_paint_funcs_tPvffffffS1_
_ZL31hb_unicode_general_category_nilP18hb_unicode_funcs_tjPv
_ZL32_hb_buffer_serialize_glyphs_jsonP11hb_buffer_tjjPcjPjP9hb_font_t27hb_buffer_serialize_flags_t
_ZL32_hb_buffer_serialize_glyphs_textP11hb_buffer_tjjPcjPjP9hb_font_t27hb_buffer_serialize_flags_t
_ZL32_hb_face_builder_reference_tableP9hb_face_tjPv
_ZL32_hb_face_for_data_get_table_tagsPK9hb_face_tjPjS2_Pv
_ZL32_indic_syllable_machine_indicies
_ZL32_khmer_syllable_machine_indicies
_ZL32_use_syllable_machine_trans_keys
_ZL32expert_subset_charset_sid_to_gid
_ZL32hb_glib_unicode_general_categoryP18hb_unicode_funcs_tjPv
_ZL32hb_outline_recording_pen_line_toP15hb_draw_funcs_tPvP15hb_draw_state_tffS1_
_ZL32hb_outline_recording_pen_move_toP15hb_draw_funcs_tPvP15hb_draw_state_tffS1_
_ZL32hb_paint_extents_push_clip_glyphP16hb_paint_funcs_tPvjP9hb_font_tS1_
_ZL32hb_paint_push_clip_rectangle_nilP16hb_paint_funcs_tPvffffS1_
_ZL33_deserialize_text_glyphs_indicies
_ZL33_hb_buffer_serialize_unicode_jsonP11hb_buffer_tjjPcjPj27hb_buffer_serialize_flags_t
_ZL33_hb_buffer_serialize_unicode_textP11hb_buffer_tjjPcjPj27hb_buffer_serialize_flags_t
_ZL33_hb_face_for_data_closure_destroyPv
_ZL33_hb_face_for_data_reference_tableP9hb_face_tjPv
_ZL33_indic_syllable_machine_eof_trans
_ZL33_indic_syllable_machine_key_spans
_ZL33_khmer_syllable_machine_eof_trans
_ZL33_khmer_syllable_machine_key_spans
_ZL33_use_syllable_machine_trans_targs
_ZL33hb_font_get_glyph_extents_defaultP9hb_font_tPvjP18hb_glyph_extents_tS1_
_ZL33hb_font_get_nominal_glyph_defaultP9hb_font_tPvjPjS1_
_ZL33hb_outline_recording_pen_cubic_toP15hb_draw_funcs_tPvP15hb_draw_state_tffffffS1_
_ZL33hb_paint_custom_palette_color_nilP16hb_paint_funcs_tPvjPjS1_
_ZL34_deserialize_text_glyphs_key_spans
_ZL34_deserialize_text_unicode_indicies
_ZL34_indic_syllable_machine_trans_keys
_ZL34_khmer_syllable_machine_trans_keys
_ZL34_myanmar_syllable_machine_indicies
_ZL34hb_font_get_font_h_extents_defaultP9hb_font_tPvP17hb_font_extents_tS1_
_ZL34hb_font_get_font_v_extents_defaultP9hb_font_tPvP17hb_font_extents_tS1_
_ZL34hb_font_get_glyph_h_origin_defaultP9hb_font_tPvjPiS2_S1_
_ZL34hb_font_get_glyph_v_origin_defaultP9hb_font_tPvjPiS2_S1_
_ZL34hb_font_get_nominal_glyphs_defaultP9hb_font_tPvjPKjjPjjS1_
_ZL34static_outline_recording_pen_funcs
_ZL35_deserialize_text_glyphs_trans_keys
_ZL35_deserialize_text_unicode_key_spans
_ZL35_hb_glyph_info_is_default_ignorablePK15hb_glyph_info_t
_ZL35_indic_syllable_machine_trans_targs
_ZL35_khmer_syllable_machine_trans_targs
_ZL35_myanmar_syllable_machine_eof_trans
_ZL35_myanmar_syllable_machine_key_spans
_ZL35_use_syllable_machine_index_offsets
_ZL35_use_syllable_machine_trans_actions
_ZL35hb_font_get_glyph_contour_point_nilP9hb_font_tPvjjPiS2_S1_
_ZL35hb_font_get_glyph_from_name_defaultP9hb_font_tPvPKciPjS1_
_ZL35hb_font_get_glyph_h_advance_defaultP9hb_font_tPvjS1_
_ZL35hb_font_get_glyph_h_kerning_defaultP9hb_font_tPvjjS1_
_ZL35hb_font_get_glyph_v_advance_defaultP9hb_font_tPvjS1_
_ZL35hb_font_get_glyph_v_kerning_defaultP9hb_font_tPvjjS1_
_ZL35hb_font_get_variation_glyph_defaultP9hb_font_tPvjjPjS1_
_ZL35hb_ot_font_cmap_cache_user_data_key
_ZL35hb_outline_recording_pen_close_pathP15hb_draw_funcs_tPvP15hb_draw_state_tS1_
_ZL36_deserialize_text_glyphs_eof_actions
_ZL36_deserialize_text_glyphs_trans_targs
_ZL36_deserialize_text_unicode_trans_keys
_ZL36_hb_face_builder_data_reference_blobP22hb_face_builder_data_t
_ZL36_myanmar_syllable_machine_trans_keys
_ZL36hb_font_get_glyph_h_advances_defaultP9hb_font_tPvjPKjjPijS1_
_ZL36hb_font_get_glyph_v_advances_defaultP9hb_font_tPvjPKjjPijS1_
_ZL36hb_font_get_nominal_glyph_trampolineP9hb_font_tPvjPjS1_
_ZL36hb_paint_extents_push_clip_rectangleP16hb_paint_funcs_tPvffffS1_
_ZL37_deserialize_text_unicode_eof_actions
_ZL37_deserialize_text_unicode_trans_targs
_ZL37_indic_syllable_machine_index_offsets
_ZL37_indic_syllable_machine_trans_actions
_ZL37_khmer_syllable_machine_index_offsets
_ZL37_khmer_syllable_machine_trans_actions
_ZL37_myanmar_syllable_machine_trans_targs
_ZL37hb_outline_recording_pen_quadratic_toP15hb_draw_funcs_tPvP15hb_draw_state_tffffS1_
_ZL37hb_paint_extents_paint_sweep_gradientP16hb_paint_funcs_tPvP15hb_color_line_tffffS1_
_ZL37initial_reordering_consonant_syllablePK18hb_ot_shape_plan_tP9hb_face_tP11hb_buffer_tjj.isra.0
_ZL38_deserialize_text_glyphs_index_offsets
_ZL38_deserialize_text_glyphs_trans_actions
_ZL38hb_font_get_variation_glyph_trampolineP9hb_font_tPvjjPjS1_
_ZL38hb_paint_extents_paint_linear_gradientP16hb_paint_funcs_tPvP15hb_color_line_tffffffS1_
_ZL38hb_paint_extents_paint_radial_gradientP16hb_paint_funcs_tPvP15hb_color_line_tffffffS1_
_ZL38hb_unicode_decompose_compatibility_nilP18hb_unicode_funcs_tjPjPv
_ZL39_deserialize_text_unicode_index_offsets
_ZL39_deserialize_text_unicode_trans_actions
_ZL39_myanmar_syllable_machine_index_offsets
_ZL39_myanmar_syllable_machine_trans_actions
_ZL39free_static_outline_recording_pen_funcsv
_ZL39hb_font_get_glyph_contour_point_defaultP9hb_font_tPvjjPiS2_S1_
_ZL40_indic_syllable_machine_to_state_actions
_ZL40_khmer_syllable_machine_to_state_actions
_ZL40_use_syllable_machine_from_state_actions
_ZL40arabic_fallback_synthesize_lookup_singlePK18hb_ot_shape_plan_tP9hb_font_tj.constprop.0
_ZL42_indic_syllable_machine_from_state_actions
_ZL42_khmer_syllable_machine_from_state_actions
_ZL42_myanmar_syllable_machine_to_state_actions
_ZL44_myanmar_syllable_machine_from_state_actions
_ZL5langs
_ZL8hb_first
_ZL9_get_pathPKN2OT4cff113accelerator_tEP9hb_font_tjR17hb_draw_session_tbPN3CFF7point_tE
_ZL9canon_map
_ZL9decomposePK31hb_ot_shape_normalize_context_tbj
_ZL9hb_second
_ZL9hb_second
_ZL9hb_use_u8
_ZL9parse_tagPPKcS0_Pj
_ZN11hb_buffer_t10next_glyphEv
_ZN11hb_buffer_t11sync_so_farEv
_ZN11hb_buffer_t12clear_outputEv
_ZN11hb_buffer_t12delete_glyphEv
_ZN11hb_buffer_t12message_implEP9hb_font_tPKcP13__va_list_tag
_ZN11hb_buffer_t13make_room_forEjj
_ZN11hb_buffer_t13reverse_rangeEjj
_ZN11hb_buffer_t13shift_forwardEj
_ZN11hb_buffer_t15clear_positionsEv
_ZN11hb_buffer_t16_set_glyph_flagsEjjjbb
_ZN11hb_buffer_t18get_scratch_bufferEPj
_ZN11hb_buffer_t18merge_out_clustersEjj
_ZN11hb_buffer_t19merge_clusters_implEjj
_ZN11hb_buffer_t21delete_glyphs_inplaceEPFbPK15hb_glyph_info_tE
_ZN11hb_buffer_t22_infos_set_glyph_flagsEP15hb_glyph_info_tjjjj
_ZN11hb_buffer_t24guess_segment_propertiesEv
_ZN11hb_buffer_t3addEjj
_ZN11hb_buffer_t4sortEjjPFiPK15hb_glyph_info_tS2_E
_ZN11hb_buffer_t4syncEv
_ZN11hb_buffer_t5clearEv
_ZN11hb_buffer_t5enterEv
_ZN11hb_buffer_t5leaveEv
_ZN11hb_buffer_t5resetEv
_ZN11hb_buffer_t6verifyEPS_P9hb_font_tPK12hb_feature_tjPKPKc
_ZN11hb_buffer_t7enlargeEj
_ZN11hb_buffer_t7messageEP9hb_font_tPKcz
_ZN11hb_buffer_t7move_toEj
_ZN11hb_buffer_t7similarERKS_
_ZN11hb_buffer_t8add_infoERK15hb_glyph_info_t
_ZN11hb_buffer_t9set_masksEjjjj
_ZN11hb_ot_map_t12lookup_map_t3cmpEPKvS2_
_ZN11hb_ot_map_t13feature_map_t3cmpEPKvS2_
_ZN11hb_vector_tI13hb_bit_page_tLb0EE5allocEjb
_ZN11hb_vector_tI15contour_point_tLb0EE5allocEjb
_ZN11hb_vector_tI15contour_point_tLb0EE6resizeEibb
_ZN11hb_vector_tI8hb_set_tLb0EE13shrink_vectorEj
_ZN11hb_vector_tI8hb_set_tLb0EE4pushEv
_ZN11hb_vector_tIN22hb_serialize_context_t8object_t6link_tELb0EE4pushEv
_ZN11hb_vector_tIN3CFF23cff1_font_dict_values_tELb0EE13shrink_vectorEj
_ZN11hb_vector_tIN3CFF31cff1_private_dict_values_base_tINS0_10dict_val_tEEELb0EE13shrink_vectorEj
_ZN11hb_vector_tIPN22hb_serialize_context_t8object_tELb0EE5allocEjb
_ZN11hb_vector_tIPN9hb_pool_tIN22hb_serialize_context_t8object_tELj32EE7chunk_tELb0EE5allocEjb
_ZN12hb_bit_set_t3op_I10._anon_136EE16hb_vector_size_tIyLj64EERKS3_S5_
_ZN12hb_bit_set_t3op_I10._anon_137EE16hb_vector_size_tIyLj64EERKS3_S5_
_ZN12hb_bit_set_t3op_I10._anon_137EE16hb_vector_size_tIyLj64EERKS3_S5_
_ZN12hb_bit_set_t3op_I10._anon_139EE16hb_vector_size_tIyLj64EERKS3_S5_
_ZN12hb_bit_set_t3op_I10._anon_139EE16hb_vector_size_tIyLj64EERKS3_S5_
_ZN12hb_bit_set_t3op_I10._anon_140EE16hb_vector_size_tIyLj64EERKS3_S5_
_ZN12hb_bit_set_t3op_I10._anon_140EE16hb_vector_size_tIyLj64EERKS3_S5_
_ZN12hb_bit_set_t3setERKS_b
_ZN12hb_bit_set_t6resizeEjbb
_ZN12hb_bit_set_t8page_forEjb
_ZN12hb_bit_set_t8process_EPF16hb_vector_size_tIyLj64EERKS1_S3_EbbRKS_
_ZN12hb_bit_set_t9add_rangeEjj
_ZN12hb_bit_set_t9add_rangeEjj.isra.0
_ZN12hb_bit_set_t9del_rangeEjj
_ZN12hb_bit_set_t9set_arrayIN2OT11HBGlyphID16EEEvbPKT_jj.part.0.constprop.0
_ZN12hb_hashmap_tIPKN22hb_serialize_context_t8object_tEjLb0EE5allocEj
_ZN12hb_hashmap_tIj17face_table_info_tLb0EE5allocEj
_ZN12hb_hashmap_tIj17face_table_info_tLb0EE6item_t7get_keyEv
_ZN12hb_hashmap_tIj17face_table_info_tLb0EE6item_t9get_valueEv
_ZN12hb_hashmap_tIj8hb_set_tLb0EE5allocEj
_ZN12hb_hashmap_tIjN2hb10unique_ptrI8hb_set_tEELb0EE5allocEj
_ZN12hb_hashmap_tIjjLb1EE3delERKj
_ZN12hb_hashmap_tIjjLb1EE5allocEj
_ZN12hb_hashmap_tIjjLb1EE6item_t7get_keyEv
_ZN12hb_hashmap_tIjjLb1EE6item_t9get_valueEv
_ZN12hb_ot_face_t4finiEv
_ZN12hb_ot_face_t5init0EP9hb_face_t
_ZN12hb_outline_t8emboldenEffff
_ZN13hb_bit_page_t9add_rangeEjj
_ZN13hb_bit_page_t9del_rangeEjj
_ZN14hb_sparseset_tI23hb_bit_set_invertible_tE4initEv
_ZN14hb_sparseset_tI23hb_bit_set_invertible_tED1Ev
_ZN14hb_sparseset_tI23hb_bit_set_invertible_tED2Ev
_ZN15hb_draw_funcs_t10start_pathEPvR15hb_draw_state_t
_ZN15machine_index_tI13hb_zip_iter_tI14hb_iota_iter_tIjjE16hb_filter_iter_tIS3_IS0_IS2_10hb_array_tI15hb_glyph_info_tEEZL18find_syllables_useP11hb_buffer_tEUlRKS5_E_RK10._anon_132LPv0EEZL18find_syllables_useS9_EUl9hb_pair_tIjSB_EE0_RK10._anon_120LSG_0EEEEaSERKSQ_
_ZN17cff1_path_param_t7line_toERKN3CFF7point_tE
_ZN17cff1_path_param_t7move_toERKN3CFF7point_tE
_ZN17cff1_path_param_t8cubic_toERKN3CFF7point_tES3_S3_
_ZN17cff2_path_param_t7line_toERKN3CFF7point_tE.isra.0
_ZN17cff2_path_param_t7move_toERKN3CFF7point_tE.isra.0
_ZN17cff2_path_param_t8cubic_toERKN3CFF7point_tES3_S3_.isra.0
_ZN18hb_ot_shape_plan_t4finiEv
_ZN18hb_ot_shape_plan_t5init0EP9hb_face_tPK19hb_shape_plan_key_t
_ZN19hb_ot_map_builder_t11add_featureEj25hb_ot_map_feature_flags_tj
_ZN19hb_ot_map_builder_t11add_lookupsER11hb_ot_map_tjjjjbbbbj
_ZN19hb_ot_map_builder_t11has_featureEj
_ZN19hb_ot_map_builder_t14feature_info_t3cmpEPKvS2_
_ZN19hb_ot_map_builder_t7compileER11hb_ot_map_tRK22hb_ot_shape_plan_key_t
_ZN19hb_ot_map_builder_t9add_pauseEjPFbPK18hb_ot_shape_plan_tP9hb_font_tP11hb_buffer_tE
_ZN19hb_ot_map_builder_tC1EP9hb_face_tRK23hb_segment_properties_t
_ZN19hb_ot_map_builder_tC2EP9hb_face_tRK23hb_segment_properties_t
_ZN19hb_ot_map_builder_tD1Ev
_ZN19hb_ot_map_builder_tD2Ev
_ZN19hb_shape_plan_key_t19user_features_matchEPKS_
_ZN19hb_shape_plan_key_t4initEbP9hb_face_tPK23hb_segment_properties_tPK12hb_feature_tjPKijPKPKc
_ZN19hb_shape_plan_key_t5equalEPKS_
_ZN20hb_aat_map_builder_t11add_featureERK12hb_feature_t
_ZN20hb_aat_map_builder_t14feature_info_t3cmpEPKvS2_
_ZN20hb_aat_map_builder_t15feature_event_t3cmpEPKvS2_
_ZN20hb_aat_map_builder_t7compileER12hb_aat_map_t
_ZN21hb_ot_shape_planner_t7compileER18hb_ot_shape_plan_tRK22hb_ot_shape_plan_key_t
_ZN21hb_ot_shape_planner_tC1EP9hb_face_tRK23hb_segment_properties_t
_ZN21hb_ot_shape_planner_tC2EP9hb_face_tRK23hb_segment_properties_t
_ZN21hb_sanitize_context_t12reset_objectEv
_ZN21hb_sanitize_context_t16start_processingEv
_ZN21hb_sanitize_context_t8dispatchIN2OT6Layout6Common8CoverageEJEEEDTcldtdefpT9_dispatchfp_cv11hb_priorityILj16EE_Espcl7forwardIT0_Efp0_EEERKT_DpOS7_
_ZN21hb_sanitize_context_t9_dispatchIN2OT6Layout6Common8CoverageEJEEEDTcldtfp_8sanitizefpTspcl7forwardIT0_Efp1_EEERKT_11hb_priorityILj1EEDpOS5_.part.0
_ZN22contour_point_vector_t6extendERK10hb_array_tI15contour_point_tE
_ZN22hb_serialize_context_t11pop_discardEv
_ZN22hb_serialize_context_t13resolve_linksEv
_ZN22hb_serialize_context_t8pop_packEb
_ZN22hb_table_lazy_loader_tIN2OT4avarELj19ELb1EE6createEP9hb_face_t
_ZN23cff1_cs_opset_extents_t12process_seacERN3CFF20cff1_cs_interp_env_tER20cff1_extents_param_t
_ZN23hb_bit_set_invertible_t3addEj
_ZN23hb_bit_set_invertible_t6union_ERKS_
_ZN23hb_bit_set_invertible_t9add_rangeEjj
_ZN24hb_set_digest_combiner_tI28hb_set_digest_bits_pattern_tImLj4EES_IS0_ImLj0EES0_ImLj9EEEE9add_rangeEjj
_ZN26hb_paint_extents_context_tC1Ev
_ZN26hb_paint_extents_context_tC2Ev
_ZN2OT11TableRecord3cmpEPKvS2_
_ZN2OT11TupleValues9decompileIiEEbRPKNS_7IntTypeIhLj1EEER11hb_vector_tIT_Lb0EES5_b
_ZN2OT18glyf_accelerator_tC1EP9hb_face_t
_ZN2OT18glyf_accelerator_tC2EP9hb_face_t
_ZN2OT18hb_paint_context_t7recurseERKNS_5PaintE
_ZN2OT19CmapSubtableFormat413accelerator_t14get_glyph_funcEPKvjPj
_ZN2OT20hb_closure_context_t14is_lookup_doneEj
_ZN2OT20hb_closure_context_t19pop_cur_done_glyphsEv.part.0.isra.0
_ZN2OT20hb_closure_context_t5flushEv
_ZN2OT21hb_ot_apply_context_t10init_itersEv
_ZN2OT21hb_ot_apply_context_t13replace_glyphEj
_ZN2OT21hb_ot_apply_context_t16_set_glyph_classEjjbb
_ZN2OT21hb_ot_apply_context_tC1EjP9hb_font_tP11hb_buffer_tP9hb_blob_t
_ZN2OT21hb_ot_apply_context_tC2EjP9hb_font_tP11hb_buffer_tP9hb_blob_t
_ZN2OT33hb_accelerate_subtables_context_t13cache_func_toINS_14ContextFormat3EEEbPKvPNS_21hb_ot_apply_context_tEb
_ZN2OT33hb_accelerate_subtables_context_t13cache_func_toINS_16ContextFormat1_4INS_6Layout10SmallTypesEEEEEbPKvPNS_21hb_ot_apply_context_tEb
_ZN2OT33hb_accelerate_subtables_context_t13cache_func_toINS_16ContextFormat2_5INS_6Layout10SmallTypesEEEEEbPKvPNS_21hb_ot_apply_context_tEb
_ZN2OT33hb_accelerate_subtables_context_t13cache_func_toINS_19ChainContextFormat3EEEbPKvPNS_21hb_ot_apply_context_tEb
_ZN2OT33hb_accelerate_subtables_context_t13cache_func_toINS_21ChainContextFormat1_4INS_6Layout10SmallTypesEEEEEbPKvPNS_21hb_ot_apply_context_tEb
_ZN2OT33hb_accelerate_subtables_context_t13cache_func_toINS_21ChainContextFormat2_5INS_6Layout10SmallTypesEEEEEbPKvPNS_21hb_ot_apply_context_tEb
_ZN2OT33hb_accelerate_subtables_context_t13cache_func_toINS_6Layout9GPOS_impl16PairPosFormat1_3INS2_10SmallTypesEEEEEbPKvPNS_21hb_ot_apply_context_tEb
_ZN2OT33hb_accelerate_subtables_context_t13cache_func_toINS_6Layout9GPOS_impl16PairPosFormat2_4INS2_10SmallTypesEEEEEbPKvPNS_21hb_ot_apply_context_tEb
_ZN2OT33hb_accelerate_subtables_context_t13cache_func_toINS_6Layout9GPOS_impl16SinglePosFormat1EEEbPKvPNS_21hb_ot_apply_context_tEb
_ZN2OT33hb_accelerate_subtables_context_t13cache_func_toINS_6Layout9GPOS_impl16SinglePosFormat2EEEbPKvPNS_21hb_ot_apply_context_tEb
_ZN2OT33hb_accelerate_subtables_context_t13cache_func_toINS_6Layout9GPOS_impl17CursivePosFormat1EEEbPKvPNS_21hb_ot_apply_context_tEb
_ZN2OT33hb_accelerate_subtables_context_t13cache_func_toINS_6Layout9GPOS_impl19MarkLigPosFormat1_2INS2_10SmallTypesEEEEEbPKvPNS_21hb_ot_apply_context_tEb
_ZN2OT33hb_accelerate_subtables_context_t13cache_func_toINS_6Layout9GPOS_impl20MarkBasePosFormat1_2INS2_10SmallTypesEEEEEbPKvPNS_21hb_ot_apply_context_tEb
_ZN2OT33hb_accelerate_subtables_context_t13cache_func_toINS_6Layout9GPOS_impl20MarkMarkPosFormat1_2INS2_10SmallTypesEEEEEbPKvPNS_21hb_ot_apply_context_tEb
_ZN2OT33hb_accelerate_subtables_context_t13cache_func_toINS_6Layout9GSUB_impl20SingleSubstFormat1_3INS2_10SmallTypesEEEEEbPKvPNS_21hb_ot_apply_context_tEb
_ZN2OT33hb_accelerate_subtables_context_t13cache_func_toINS_6Layout9GSUB_impl20SingleSubstFormat2_4INS2_10SmallTypesEEEEEbPKvPNS_21hb_ot_apply_context_tEb
_ZN2OT33hb_accelerate_subtables_context_t13cache_func_toINS_6Layout9GSUB_impl22LigatureSubstFormat1_2INS2_10SmallTypesEEEEEbPKvPNS_21hb_ot_apply_context_tEb
_ZN2OT33hb_accelerate_subtables_context_t13cache_func_toINS_6Layout9GSUB_impl22MultipleSubstFormat1_2INS2_10SmallTypesEEEEEbPKvPNS_21hb_ot_apply_context_tEb
_ZN2OT33hb_accelerate_subtables_context_t13cache_func_toINS_6Layout9GSUB_impl23AlternateSubstFormat1_2INS2_10SmallTypesEEEEEbPKvPNS_21hb_ot_apply_context_tEb
_ZN2OT33hb_accelerate_subtables_context_t13cache_func_toINS_6Layout9GSUB_impl30ReverseChainSingleSubstFormat1EEEbPKvPNS_21hb_ot_apply_context_tEb
_ZN2OT33hb_accelerate_subtables_context_t15apply_cached_toINS_14ContextFormat3EEEbPKvPNS_21hb_ot_apply_context_tE
_ZN2OT33hb_accelerate_subtables_context_t15apply_cached_toINS_16ContextFormat1_4INS_6Layout10SmallTypesEEEEEbPKvPNS_21hb_ot_apply_context_tE
_ZN2OT33hb_accelerate_subtables_context_t15apply_cached_toINS_16ContextFormat2_5INS_6Layout10SmallTypesEEEEEbPKvPNS_21hb_ot_apply_context_tE
_ZN2OT33hb_accelerate_subtables_context_t15apply_cached_toINS_19ChainContextFormat3EEEbPKvPNS_21hb_ot_apply_context_tE
_ZN2OT33hb_accelerate_subtables_context_t15apply_cached_toINS_21ChainContextFormat1_4INS_6Layout10SmallTypesEEEEEbPKvPNS_21hb_ot_apply_context_tE
_ZN2OT33hb_accelerate_subtables_context_t15apply_cached_toINS_21ChainContextFormat2_5INS_6Layout10SmallTypesEEEEEbPKvPNS_21hb_ot_apply_context_tE
_ZN2OT33hb_accelerate_subtables_context_t15apply_cached_toINS_6Layout9GPOS_impl16PairPosFormat1_3INS2_10SmallTypesEEEEEbPKvPNS_21hb_ot_apply_context_tE
_ZN2OT33hb_accelerate_subtables_context_t15apply_cached_toINS_6Layout9GPOS_impl16PairPosFormat2_4INS2_10SmallTypesEEEEEbPKvPNS_21hb_ot_apply_context_tE
_ZN2OT33hb_accelerate_subtables_context_t15apply_cached_toINS_6Layout9GPOS_impl16SinglePosFormat1EEEbPKvPNS_21hb_ot_apply_context_tE
_ZN2OT33hb_accelerate_subtables_context_t15apply_cached_toINS_6Layout9GPOS_impl16SinglePosFormat2EEEbPKvPNS_21hb_ot_apply_context_tE
_ZN2OT33hb_accelerate_subtables_context_t15apply_cached_toINS_6Layout9GPOS_impl17CursivePosFormat1EEEbPKvPNS_21hb_ot_apply_context_tE
_ZN2OT33hb_accelerate_subtables_context_t15apply_cached_toINS_6Layout9GPOS_impl19MarkLigPosFormat1_2INS2_10SmallTypesEEEEEbPKvPNS_21hb_ot_apply_context_tE
_ZN2OT33hb_accelerate_subtables_context_t15apply_cached_toINS_6Layout9GPOS_impl20MarkBasePosFormat1_2INS2_10SmallTypesEEEEEbPKvPNS_21hb_ot_apply_context_tE
_ZN2OT33hb_accelerate_subtables_context_t15apply_cached_toINS_6Layout9GPOS_impl20MarkMarkPosFormat1_2INS2_10SmallTypesEEEEEbPKvPNS_21hb_ot_apply_context_tE
_ZN2OT33hb_accelerate_subtables_context_t15apply_cached_toINS_6Layout9GSUB_impl20SingleSubstFormat1_3INS2_10SmallTypesEEEEEbPKvPNS_21hb_ot_apply_context_tE
_ZN2OT33hb_accelerate_subtables_context_t15apply_cached_toINS_6Layout9GSUB_impl20SingleSubstFormat2_4INS2_10SmallTypesEEEEEbPKvPNS_21hb_ot_apply_context_tE
_ZN2OT33hb_accelerate_subtables_context_t15apply_cached_toINS_6Layout9GSUB_impl22LigatureSubstFormat1_2INS2_10SmallTypesEEEEEbPKvPNS_21hb_ot_apply_context_tE
_ZN2OT33hb_accelerate_subtables_context_t15apply_cached_toINS_6Layout9GSUB_impl22MultipleSubstFormat1_2INS2_10SmallTypesEEEEEbPKvPNS_21hb_ot_apply_context_tE
_ZN2OT33hb_accelerate_subtables_context_t15apply_cached_toINS_6Layout9GSUB_impl23AlternateSubstFormat1_2INS2_10SmallTypesEEEEEbPKvPNS_21hb_ot_apply_context_tE
_ZN2OT33hb_accelerate_subtables_context_t15apply_cached_toINS_6Layout9GSUB_impl30ReverseChainSingleSubstFormat1EEEbPKvPNS_21hb_ot_apply_context_tE
_ZN2OT33hb_accelerate_subtables_context_t8apply_toINS_14ContextFormat3EEEbPKvPNS_21hb_ot_apply_context_tE
_ZN2OT33hb_accelerate_subtables_context_t8apply_toINS_16ContextFormat1_4INS_6Layout10SmallTypesEEEEEbPKvPNS_21hb_ot_apply_context_tE
_ZN2OT33hb_accelerate_subtables_context_t8apply_toINS_16ContextFormat2_5INS_6Layout10SmallTypesEEEEEbPKvPNS_21hb_ot_apply_context_tE
_ZN2OT33hb_accelerate_subtables_context_t8apply_toINS_19ChainContextFormat3EEEbPKvPNS_21hb_ot_apply_context_tE
_ZN2OT33hb_accelerate_subtables_context_t8apply_toINS_21ChainContextFormat1_4INS_6Layout10SmallTypesEEEEEbPKvPNS_21hb_ot_apply_context_tE
_ZN2OT33hb_accelerate_subtables_context_t8apply_toINS_21ChainContextFormat2_5INS_6Layout10SmallTypesEEEEEbPKvPNS_21hb_ot_apply_context_tE
_ZN2OT33hb_accelerate_subtables_context_t8apply_toINS_6Layout9GPOS_impl16PairPosFormat1_3INS2_10SmallTypesEEEEEbPKvPNS_21hb_ot_apply_context_tE
_ZN2OT33hb_accelerate_subtables_context_t8apply_toINS_6Layout9GPOS_impl16PairPosFormat2_4INS2_10SmallTypesEEEEEbPKvPNS_21hb_ot_apply_context_tE
_ZN2OT33hb_accelerate_subtables_context_t8apply_toINS_6Layout9GPOS_impl16SinglePosFormat1EEEbPKvPNS_21hb_ot_apply_context_tE
_ZN2OT33hb_accelerate_subtables_context_t8apply_toINS_6Layout9GPOS_impl16SinglePosFormat2EEEbPKvPNS_21hb_ot_apply_context_tE
_ZN2OT33hb_accelerate_subtables_context_t8apply_toINS_6Layout9GPOS_impl17CursivePosFormat1EEEbPKvPNS_21hb_ot_apply_context_tE
_ZN2OT33hb_accelerate_subtables_context_t8apply_toINS_6Layout9GPOS_impl19MarkLigPosFormat1_2INS2_10SmallTypesEEEEEbPKvPNS_21hb_ot_apply_context_tE
_ZN2OT33hb_accelerate_subtables_context_t8apply_toINS_6Layout9GPOS_impl20MarkBasePosFormat1_2INS2_10SmallTypesEEEEEbPKvPNS_21hb_ot_apply_context_tE
_ZN2OT33hb_accelerate_subtables_context_t8apply_toINS_6Layout9GPOS_impl20MarkMarkPosFormat1_2INS2_10SmallTypesEEEEEbPKvPNS_21hb_ot_apply_context_tE
_ZN2OT33hb_accelerate_subtables_context_t8apply_toINS_6Layout9GSUB_impl20SingleSubstFormat1_3INS2_10SmallTypesEEEEEbPKvPNS_21hb_ot_apply_context_tE
_ZN2OT33hb_accelerate_subtables_context_t8apply_toINS_6Layout9GSUB_impl20SingleSubstFormat2_4INS2_10SmallTypesEEEEEbPKvPNS_21hb_ot_apply_context_tE
_ZN2OT33hb_accelerate_subtables_context_t8apply_toINS_6Layout9GSUB_impl22LigatureSubstFormat1_2INS2_10SmallTypesEEEEEbPKvPNS_21hb_ot_apply_context_tE
_ZN2OT33hb_accelerate_subtables_context_t8apply_toINS_6Layout9GSUB_impl22MultipleSubstFormat1_2INS2_10SmallTypesEEEEEbPKvPNS_21hb_ot_apply_context_tE
_ZN2OT33hb_accelerate_subtables_context_t8apply_toINS_6Layout9GSUB_impl23AlternateSubstFormat1_2INS2_10SmallTypesEEEEEbPKvPNS_21hb_ot_apply_context_tE
_ZN2OT33hb_accelerate_subtables_context_t8apply_toINS_6Layout9GSUB_impl30ReverseChainSingleSubstFormat1EEEbPKvPNS_21hb_ot_apply_context_tE
_ZN2OT4GDEF13accelerator_tC1EP9hb_face_t
_ZN2OT4GDEF13accelerator_tC2EP9hb_face_t
_ZN2OT4cff113accelerator_t7gname_t3cmpEPKvS4_
_ZN2OT4cff119accelerator_templ_tIN3CFF25cff1_private_dict_opset_tENS2_31cff1_private_dict_values_base_tINS2_10dict_val_tEEEEC1EP9hb_face_t
_ZN2OT4cff119accelerator_templ_tIN3CFF25cff1_private_dict_opset_tENS2_31cff1_private_dict_values_base_tINS2_10dict_val_tEEEEC2EP9hb_face_t
_ZN2OT4cff129lookup_expert_charset_for_sidEj
_ZN2OT4cff131lookup_expert_charset_for_glyphEj
_ZN2OT4cff131lookup_expert_encoding_for_codeEj
_ZN2OT4cff132lookup_standard_encoding_for_sidEj
_ZN2OT4cff133lookup_standard_encoding_for_codeEj
_ZN2OT4cff136lookup_expert_subset_charset_for_sidEj
_ZN2OT4cff138lookup_expert_subset_charset_for_glyphEj
_ZN2OT4cff219accelerator_templ_tIN3CFF25cff2_private_dict_opset_tENS2_31cff2_private_dict_values_base_tINS2_10dict_val_tEEEEC1EP9hb_face_t
_ZN2OT4cff219accelerator_templ_tIN3CFF25cff2_private_dict_opset_tENS2_31cff2_private_dict_values_base_tINS2_10dict_val_tEEEEC2EP9hb_face_t
_ZN2OT4cmap13accelerator_t14get_glyph_fromINS_12CmapSubtableEEEbPKvjPj
_ZN2OT4cmap13accelerator_t14get_glyph_fromINS_20CmapSubtableFormat12EEEbPKvjPj
_ZN2OT4cmap13accelerator_t20get_glyph_from_asciiINS_12CmapSubtableEEEbPKvjPj
_ZN2OT4cmap13accelerator_t21get_glyph_from_symbolINS_12CmapSubtableEXadL_ZL23_hb_arabic_pua_simp_mapjEEEEbPKvjPj
_ZN2OT4cmap13accelerator_t21get_glyph_from_symbolINS_12CmapSubtableEXadL_ZL23_hb_arabic_pua_trad_mapjEEEEbPKvjPj
_ZN2OT4cmap13accelerator_t21get_glyph_from_symbolINS_12CmapSubtableEXadL_ZNS_L18_hb_symbol_pua_mapEjEEEEbPKvjPj
_ZN2OT4cmap13accelerator_t23get_glyph_from_macromanINS_12CmapSubtableEEEbPKvjPj
_ZN2OT4cmap13accelerator_tC1EP9hb_face_t
_ZN2OT4cmap13accelerator_tC2EP9hb_face_t
_ZN2OT4gvar13accelerator_tC1EP9hb_face_t
_ZN2OT4gvar13accelerator_tC2EP9hb_face_t
_ZN2OT4kern13accelerator_tC1EP9hb_face_t
_ZN2OT4kern13accelerator_tC2EP9hb_face_t
_ZN2OT4name13accelerator_tC1EP9hb_face_t
_ZN2OT4name13accelerator_tC2EP9hb_face_t
_ZN2OT4post13accelerator_t8cmp_gidsEPKvS3_Pv
_ZN2OT4post13accelerator_tC1EP9hb_face_t
_ZN2OT4post13accelerator_tC2EP9hb_face_t
_ZN2OT6Layout6Common11RangeRecordINS0_10SmallTypesEE9cmp_rangeEPKvS6_
_ZN2OT6Layout6Common8Coverage6iter_t8__next__Ev
_ZN2OT6Layout6Common8Coverage6iter_tC1ERKS2_
_ZN2OT6Layout6Common8Coverage6iter_tC2ERKS2_
_ZN2OT6Layout9GPOS_impl11ValueFormat10get_deviceEPKNS_7IntTypeItLj2EEEPbPKNS1_9ValueBaseER21hb_sanitize_context_t
_ZN2OT6Layout9GPOS_impl9PosLookup21dispatch_recurse_funcINS_21hb_ot_apply_context_tEEENT_8return_tEPS5_j
_ZN2OT6Layout9GPOS_implL28reverse_cursive_minor_offsetEP19hb_glyph_position_tj14hb_direction_tj
_ZN2OT6Layout9GSUB_impl11SubstLookup21dispatch_recurse_funcINS_21hb_ot_apply_context_tEEENT_8return_tEPS5_j
_ZN2OT6Layout9GSUB_impl11SubstLookup21dispatch_recurse_funcINS_27hb_collect_glyphs_context_tEEENT_8return_tEPS5_j
_ZN2OT6Layout9GSUB_impl11SubstLookup29dispatch_closure_recurse_funcEPNS_20hb_closure_context_tEjP8hb_set_tjj
_ZN2OT6Layout9GSUB_impl22LigatureSubstFormat1_2INS0_10SmallTypesEE9serializeEP22hb_serialize_context_t17hb_sorted_array_tIKNS_11HBGlyphID16EE10hb_array_tIKjESB_IS9_ESD_SE_.isra.0
_ZN2OT6LayoutL28propagate_attachment_offsetsEP19hb_glyph_position_tjj14hb_direction_tj
_ZN2OT6Lookup9serializeEP22hb_serialize_context_tjjj
_ZN2OT7ArrayOfINS_11HBGlyphID16ENS_7IntTypeItLj2EEEE9serializeEP22hb_serialize_context_tjb
_ZN2OT7ArrayOfINS_6Layout6Common11RangeRecordINS1_10SmallTypesEEENS_7IntTypeItLj2EEEE9serializeEP22hb_serialize_context_tjb
_ZN2OT8OffsetToINS_6Layout6Common8CoverageENS_7IntTypeItLj2EEEvLb1EE19serialize_serializeIJR13hb_map_iter_tI13hb_zip_iter_tI17hb_sorted_array_tINS_11HBGlyphID16EE10hb_array_tISB_EERK10._anon_131L24hb_function_sortedness_t1ELPv0EEEEEbP22hb_serialize_context_tDpOT_
_ZN2OT8hmtxvmtxINS_4hmtxENS_4hheaENS_4HVAREE13accelerator_tC1EP9hb_face_t
_ZN2OT8hmtxvmtxINS_4hmtxENS_4hheaENS_4HVAREE13accelerator_tC2EP9hb_face_t
_ZN2OT8hmtxvmtxINS_4vmtxENS_4vheaENS_4VVAREE13accelerator_tC1EP9hb_face_t
_ZN2OT8hmtxvmtxINS_4vmtxENS_4vheaENS_4VVAREE13accelerator_tC2EP9hb_face_t
_ZN2OT9ColorLineINS_10NoVariableEE17static_get_extendEP15hb_color_line_tPvS5_
_ZN2OT9ColorLineINS_10NoVariableEE22static_get_color_stopsEP15hb_color_line_tPvjPjP15hb_color_stop_tS5_
_ZN2OT9ColorLineINS_8VariableEE17static_get_extendEP15hb_color_line_tPvS5_
_ZN2OT9ColorLineINS_8VariableEE22static_get_color_stopsEP15hb_color_line_tPvjPjP15hb_color_stop_tS5_
_ZN2OTL11match_classER15hb_glyph_info_tjPKv
_ZN2OTL11match_classER15hb_glyph_info_tjPKv
_ZN2OTL11match_glyphER15hb_glyph_info_tjPKv
_ZN2OTL11match_glyphER15hb_glyph_info_tjPKv
_ZN2OTL12apply_lookupEPNS_21hb_ot_apply_context_tEjPjjPKNS_12LookupRecordEj
_ZN2OTL12apply_lookupEPNS_21hb_ot_apply_context_tEjPjjPKNS_12LookupRecordEj
_ZN2OTL12match_alwaysER15hb_glyph_info_tjPKv
_ZN2OTL12match_alwaysER15hb_glyph_info_tjPKv
_ZN2OTL13collect_classEP8hb_set_tjPKv
_ZN2OTL13collect_glyphEP8hb_set_tjPKv
_ZN2OTL14match_coverageER15hb_glyph_info_tjPKv
_ZN2OTL14match_coverageER15hb_glyph_info_tjPKv
_ZN2OTL16collect_coverageEP8hb_set_tjPKv
_ZN2OTL16intersects_classEPK8hb_set_tjPKvPv
_ZN2OTL16intersects_glyphEPK8hb_set_tjPKvPv
_ZN2OTL17intersected_glyphEPK8hb_set_tPKvjPS0_Pv
_ZN2OTL18match_class_cachedER15hb_glyph_info_tjPKv
_ZN2OTL18match_class_cachedER15hb_glyph_info_tjPKv
_ZN2OTL19intersects_coverageEPK8hb_set_tjPKvPv
_ZN2OTL19match_class_cached1ER15hb_glyph_info_tjPKv
_ZN2OTL19match_class_cached1ER15hb_glyph_info_tjPKv
_ZN2OTL19match_class_cached2ER15hb_glyph_info_tjPKv
_ZN2OTL19match_class_cached2ER15hb_glyph_info_tjPKv
_ZN2OTL21_hb_ot_name_entry_cmpEPKvS1_
_ZN2OTL24intersected_class_glyphsEPK8hb_set_tPKvjPS0_Pv
_ZN2OTL27intersected_coverage_glyphsEPK8hb_set_tPKvjPS0_Pv
_ZN2OTL31context_closure_recurse_lookupsINS_7IntTypeItLj2EEEEEvPNS_20hb_closure_context_tEjPKT_jPKNS_12LookupRecordEjNS_13ContextFormatEPKvPFvPK8hb_set_tSD_jPSE_PvESI_
_ZN31hb_ot_shape_normalize_context_t15compose_unicodeEPKS_jjPj
_ZN31hb_ot_shape_normalize_context_t17decompose_unicodeEPKS_jPjS2_
_ZN3AAT16StateTableDriverINS_13ExtendedTypesENS_12Format1EntryILb1EE9EntryDataEE5driveINS_19KerxSubTableFormat1INS_18KerxSubTableHeaderEE16driver_context_tEEEvPT_PNS_22hb_aat_apply_context_tE
_ZN3AAT16StateTableDriverINS_13ExtendedTypesENS_13LigatureEntryILb1EE9EntryDataEE5driveINS_16LigatureSubtableIS1_E16driver_context_tEEEvPT_PNS_22hb_aat_apply_context_tE
_ZN3AAT16StateTableDriverINS_13ExtendedTypesENS_17InsertionSubtableIS1_E9EntryDataEE5driveINS3_16driver_context_tEEEvPT_PNS_22hb_aat_apply_context_tE
_ZN3AAT16StateTableDriverINS_13ExtendedTypesENS_18ContextualSubtableIS1_E9EntryDataEE5driveINS3_16driver_context_tEEEvPT_PNS_22hb_aat_apply_context_tE
_ZN3AAT16StateTableDriverINS_13ExtendedTypesENS_19KerxSubTableFormat4INS_18KerxSubTableHeaderEE9EntryDataEE5driveINS4_16driver_context_tEEEvPT_PNS_22hb_aat_apply_context_tE
_ZN3AAT16StateTableDriverINS_13ExtendedTypesEvE5driveINS_21RearrangementSubtableIS1_E16driver_context_tEEEvPT_PNS_22hb_aat_apply_context_tE
_ZN3AAT16StateTableDriverINS_13ObsoleteTypesENS_17InsertionSubtableIS1_E9EntryDataEE5driveINS3_16driver_context_tEEEvPT_PNS_22hb_aat_apply_context_tE
_ZN3AAT16StateTableDriverINS_13ObsoleteTypesENS_18ContextualSubtableIS1_E9EntryDataEE5driveINS3_16driver_context_tEEEvPT_PNS_22hb_aat_apply_context_tE
_ZN3AAT16StateTableDriverINS_13ObsoleteTypesEvE5driveINS_16LigatureSubtableIS1_E16driver_context_tEEEvPT_PNS_22hb_aat_apply_context_tE
_ZN3AAT16StateTableDriverINS_13ObsoleteTypesEvE5driveINS_19KerxSubTableFormat1IN2OT20KernOTSubTableHeaderEE16driver_context_tEEEvPT_PNS_22hb_aat_apply_context_tE
_ZN3AAT16StateTableDriverINS_13ObsoleteTypesEvE5driveINS_19KerxSubTableFormat1IN2OT21KernAATSubTableHeaderEE16driver_context_tEEEvPT_PNS_22hb_aat_apply_context_tE
_ZN3AAT16StateTableDriverINS_13ObsoleteTypesEvE5driveINS_21RearrangementSubtableIS1_E16driver_context_tEEEvPT_PNS_22hb_aat_apply_context_tE
_ZN3AAT22hb_aat_apply_context_t14set_ankr_tableEPKNS_4ankrE
_ZN3AAT22hb_aat_apply_context_tC1EPK18hb_ot_shape_plan_tP9hb_font_tP11hb_buffer_tP9hb_blob_t
_ZN3AAT22hb_aat_apply_context_tC2EPK18hb_ot_shape_plan_tP9hb_font_tP11hb_buffer_tP9hb_blob_t
_ZN3AAT22hb_aat_apply_context_tD1Ev
_ZN3AAT22hb_aat_apply_context_tD2Ev
_ZN3AAT8mortmorxINS_4morxENS_13ExtendedTypesELj1836020344EE13accelerator_tC1EP9hb_face_t
_ZN3AAT8mortmorxINS_4morxENS_13ExtendedTypesELj1836020344EE13accelerator_tC2EP9hb_face_t
_ZN3CFF10cs_opset_tINS_8number_tE20cff1_cs_opset_path_tNS_20cff1_cs_interp_env_tE17cff1_path_param_t22cff1_path_procs_path_tE10process_opEjRS3_RS4_
_ZN3CFF10cs_opset_tINS_8number_tE20cff2_cs_opset_path_tNS_20cff2_cs_interp_env_tIS1_EE17cff2_path_param_t22cff2_path_procs_path_tE10process_opEjRS4_RS5_
_ZN3CFF10cs_opset_tINS_8number_tE23cff1_cs_opset_extents_tNS_20cff1_cs_interp_env_tE20cff1_extents_param_t25cff1_path_procs_extents_tE10process_opEjRS3_RS4_
_ZN3CFF10cs_opset_tINS_8number_tE23cff2_cs_opset_extents_tNS_20cff2_cs_interp_env_tIS1_EE20cff2_extents_param_t25cff2_path_procs_extents_tE10process_opEjRS4_RS5_
_ZN3CFF12dict_opset_t10process_opEjRNS_12interp_env_tINS_8number_tEEE
_ZN3CFF12path_procs_tI22cff1_path_procs_path_tNS_20cff1_cs_interp_env_tE17cff1_path_param_tE10rcurvelineERS2_RS3_
_ZN3CFF12path_procs_tI22cff1_path_procs_path_tNS_20cff1_cs_interp_env_tE17cff1_path_param_tE9hvcurvetoERS2_RS3_
_ZN3CFF12path_procs_tI22cff1_path_procs_path_tNS_20cff1_cs_interp_env_tE17cff1_path_param_tE9vhcurvetoERS2_RS3_
_ZN3CFF12path_procs_tI22cff2_path_procs_path_tNS_20cff2_cs_interp_env_tINS_8number_tEEE17cff2_path_param_tE10rcurvelineERS4_RS5_
_ZN3CFF12path_procs_tI22cff2_path_procs_path_tNS_20cff2_cs_interp_env_tINS_8number_tEEE17cff2_path_param_tE9hvcurvetoERS4_RS5_
_ZN3CFF12path_procs_tI22cff2_path_procs_path_tNS_20cff2_cs_interp_env_tINS_8number_tEEE17cff2_path_param_tE9vhcurvetoERS4_RS5_
_ZN3CFF12path_procs_tI25cff1_path_procs_extents_tNS_20cff1_cs_interp_env_tE20cff1_extents_param_tE4flexERS2_RS3_
_ZN3CFF12path_procs_tI25cff1_path_procs_extents_tNS_20cff1_cs_interp_env_tE20cff1_extents_param_tE5flex1ERS2_RS3_
_ZN3CFF12path_procs_tI25cff1_path_procs_extents_tNS_20cff1_cs_interp_env_tE20cff1_extents_param_tE9hvcurvetoERS2_RS3_
_ZN3CFF12path_procs_tI25cff1_path_procs_extents_tNS_20cff1_cs_interp_env_tE20cff1_extents_param_tE9vhcurvetoERS2_RS3_
_ZN3CFF12path_procs_tI25cff2_path_procs_extents_tNS_20cff2_cs_interp_env_tINS_8number_tEEE20cff2_extents_param_tE4flexERS4_RS5_
_ZN3CFF12path_procs_tI25cff2_path_procs_extents_tNS_20cff2_cs_interp_env_tINS_8number_tEEE20cff2_extents_param_tE5flex1ERS4_RS5_
_ZN3CFF12path_procs_tI25cff2_path_procs_extents_tNS_20cff2_cs_interp_env_tINS_8number_tEEE20cff2_extents_param_tE9hvcurvetoERS4_RS5_
_ZN3CFF12path_procs_tI25cff2_path_procs_extents_tNS_20cff2_cs_interp_env_tINS_8number_tEEE20cff2_extents_param_tE9vhcurvetoERS4_RS5_
_ZN3CFF15cs_interp_env_tINS_8number_tENS_5SubrsIN2OT7IntTypeItLj2EEEEEE9call_subrERKNS_14biased_subrs_tIS6_EENS_9cs_type_tE
_ZN3CFF16cs_interpreter_tINS_20cff1_cs_interp_env_tE20cff1_cs_opset_seac_t16get_seac_param_tE9interpretERS3_
_ZN3CFF18dict_interpreter_tINS_25cff1_private_dict_opset_tENS_31cff1_private_dict_values_base_tINS_10dict_val_tEEENS_12interp_env_tINS_8number_tEEEE9interpretERS4_
_ZN3CFF20cff2_cs_interp_env_tINS_8number_tEE13process_blendEv
_ZN3CFF21cff1_top_dict_opset_t10process_opEjRNS_26cff1_top_dict_interp_env_tERNS_22cff1_top_dict_values_tE
_ZN9hb_blob_t17try_make_writableEv
_ZN9hb_blob_t25try_make_writable_inplaceEv
_ZN9hb_blob_t30try_make_writable_inplace_unixEv
_ZN9hb_font_t12has_func_setEj
_ZN9hb_font_t19scale_glyph_extentsEP18hb_glyph_extents_t
_ZN9hb_font_t29guess_v_origin_minus_h_originEjPiS0_
_ZN9hb_font_t8has_funcEj
_ZN9hb_pool_tIN22hb_serialize_context_t8object_tELj32EE5allocEv
_ZNK11hb_ot_map_t10substituteEPK18hb_ot_shape_plan_tP9hb_font_tP11hb_buffer_t
_ZNK11hb_ot_map_t15collect_lookupsEjP8hb_set_t
_ZNK11hb_ot_map_t5applyI9GPOSProxyEEvRKT_PK18hb_ot_shape_plan_tP9hb_font_tP11hb_buffer_t
_ZNK11hb_ot_map_t5applyI9GSUBProxyEEvRKT_PK18hb_ot_shape_plan_tP9hb_font_tP11hb_buffer_t
_ZNK11hb_ot_map_t8positionEPK18hb_ot_shape_plan_tP9hb_font_tP11hb_buffer_t
_ZNK12hb_bit_set_t3getEj
_ZNK12hb_bit_set_t4nextEPj
_ZNK12hb_bit_set_t8previousEPj
_ZNK12hb_bit_set_t9is_subsetERKS_
_ZNK12hb_hashmap_tIj17face_table_info_tLb0EE6item_t7is_realEv
_ZNK12hb_hashmap_tIj17face_table_info_tLb0EE6item_t8get_pairEv
_ZNK12hb_hashmap_tIjjLb1EE6item_t7is_realEv
_ZNK12hb_hashmap_tIjjLb1EE6item_t8get_pairEv
_ZNK12hb_outline_t12control_areaEv
_ZNK12hb_outline_t6replayEP15hb_draw_funcs_tPv
_ZNK16hb_lazy_loader_tIN2OT18CBDT_accelerator_tE21hb_face_lazy_loader_tIS1_Lj37EE9hb_face_tLj37ES1_E10get_storedEv
_ZNK16hb_lazy_loader_tIN2OT18GDEF_accelerator_tE21hb_face_lazy_loader_tIS1_Lj24EE9hb_face_tLj24ES1_E10get_storedEv
_ZNK16hb_lazy_loader_tIN2OT18GPOS_accelerator_tE21hb_face_lazy_loader_tIS1_Lj26EE9hb_face_tLj26ES1_E10get_storedEv
_ZNK16hb_lazy_loader_tIN2OT18GSUB_accelerator_tE21hb_face_lazy_loader_tIS1_Lj25EE9hb_face_tLj25ES1_E10get_storedEv
_ZNK16hb_lazy_loader_tIN2OT18cff1_accelerator_tE21hb_face_lazy_loader_tIS1_Lj16EE9hb_face_tLj16ES1_E10get_storedEv
_ZNK16hb_lazy_loader_tIN2OT18cff2_accelerator_tE21hb_face_lazy_loader_tIS1_Lj17EE9hb_face_tLj17ES1_E10get_storedEv
_ZNK16hb_lazy_loader_tIN2OT18sbix_accelerator_tE21hb_face_lazy_loader_tIS1_Lj38EE9hb_face_tLj38ES1_E10get_storedEv
_ZNK16hb_lazy_loader_tIN2OT3OS2E22hb_table_lazy_loader_tIS1_Lj6ELb1EE9hb_face_tLj6E9hb_blob_tE10get_storedEv
_ZNK16hb_lazy_loader_tIN2OT4CPALE22hb_table_lazy_loader_tIS1_Lj36ELb1EE9hb_face_tLj36E9hb_blob_tE10get_storedEv
_ZNK16hb_lazy_loader_tIN2OT4MATHE22hb_table_lazy_loader_tIS1_Lj40ELb1EE9hb_face_tLj40E9hb_blob_tE10get_storedEv
_ZNK16hb_lazy_loader_tIN2OT4MVARE22hb_table_lazy_loader_tIS1_Lj22ELb1EE9hb_face_tLj22E9hb_blob_tE10get_storedEv
_ZNK16hb_lazy_loader_tIN2OT4avarE22hb_table_lazy_loader_tIS1_Lj19ELb1EE9hb_face_tLj19E9hb_blob_tE10get_storedEv
_ZNK16hb_lazy_loader_tIN2OT4hheaE22hb_table_lazy_loader_tIS1_Lj4ELb1EE9hb_face_tLj4E9hb_blob_tE10get_storedEv
_ZNK16hb_lazy_loader_tIN2OT4vheaE22hb_table_lazy_loader_tIS1_Lj11ELb1EE9hb_face_tLj11E9hb_blob_tE10get_storedEv
_ZNK16hb_lazy_loader_tIN3AAT4featE22hb_table_lazy_loader_tIS1_Lj34ELb0EE9hb_face_tLj34E9hb_blob_tE10get_storedEv
_ZNK18hb_ot_shape_plan_t10substituteEP9hb_font_tP11hb_buffer_t
_ZNK18hb_ot_shape_plan_t8positionEP9hb_font_tP11hb_buffer_t
_ZNK22hb_serialize_context_t10copy_bytesEv
_ZNK23hb_bit_set_invertible_t14get_populationEv
_ZNK23hb_bit_set_invertible_t4nextEPj
_ZNK24hb_set_digest_combiner_tI28hb_set_digest_bits_pattern_tImLj4EES_IS0_ImLj0EES0_ImLj9EEEE8may_haveERKS5_.part.0
_ZNK24hb_set_digest_combiner_tI28hb_set_digest_bits_pattern_tImLj4EES_IS0_ImLj0EES0_ImLj9EEEE8may_haveERKS5_.part.0
_ZNK24hb_set_digest_combiner_tI28hb_set_digest_bits_pattern_tImLj4EES_IS0_ImLj0EES0_ImLj9EEEE8may_haveEj.part.0
_ZNK24hb_set_digest_combiner_tI28hb_set_digest_bits_pattern_tImLj4EES_IS0_ImLj0EES0_ImLj9EEEE8may_haveEj.part.0
_ZNK2OT10BaseScript8sanitizeEP21hb_sanitize_context_t
_ZNK2OT10PaintScale11paint_glyphEPNS_18hb_paint_context_tEj
_ZNK2OT10PaintScale8sanitizeEP21hb_sanitize_context_t
_ZNK2OT10PaintSolid11paint_glyphEPNS_18hb_paint_context_tEj
_ZNK2OT11PaintRotate11paint_glyphEPNS_18hb_paint_context_tEj
_ZNK2OT11PaintRotate8sanitizeEP21hb_sanitize_context_t
_ZNK2OT12ChainContext8dispatchI21hb_sanitize_context_tJEEENT_8return_tEPS3_DpOT0_
_ZNK2OT12ChainContext8dispatchINS_27hb_collect_glyphs_context_tEJEEENT_8return_tEPS3_DpOT0_.isra.0
_ZNK2OT12ChainRuleSetINS_6Layout10SmallTypesEE5applyEPNS_21hb_ot_apply_context_tERKNS_30ChainContextApplyLookupContextE
_ZNK2OT12CmapSubtable8sanitizeEP21hb_sanitize_context_t
_ZNK2OT12CmapSubtable9get_glyphEjPj
_ZNK2OT12LigCaretList8sanitizeEP21hb_sanitize_context_t
_ZNK2OT12MathVariants8sanitizeEP21hb_sanitize_context_t
_ZNK2OT13MarkGlyphSets8sanitizeEP21hb_sanitize_context_t
_ZNK2OT13MathGlyphInfo8sanitizeEP21hb_sanitize_context_t
_ZNK2OT14ContextFormat35applyEPNS_21hb_ot_apply_context_tE
_ZNK2OT14GDEFVersion1_2INS_6Layout10SmallTypesEE8sanitizeEP21hb_sanitize_context_t
_ZNK2OT14PaintColrGlyph11paint_glyphEPNS_18hb_paint_context_tE
_ZNK2OT14PaintTranslate11paint_glyphEPNS_18hb_paint_context_tEj
_ZNK2OT14PaintTranslate8sanitizeEP21hb_sanitize_context_t
_ZNK2OT15MathValueRecord11get_x_valueEP9hb_font_tPKv
_ZNK2OT15MathValueRecord11get_y_valueEP9hb_font_tPKv
_ZNK2OT16ContextFormat1_4INS_6Layout10SmallTypesEE7closureEPNS_20hb_closure_context_tE
_ZNK2OT16ContextFormat2_5INS_6Layout10SmallTypesEE7closureEPNS_20hb_closure_context_tE
_ZNK2OT16ContextFormat2_5INS_6Layout10SmallTypesEE8sanitizeEP21hb_sanitize_context_t
_ZNK2OT16DeltaSetIndexMap3mapEj
_ZNK2OT16DeltaSetIndexMap8sanitizeEP21hb_sanitize_context_t
_ZNK2OT16OpenTypeFontFile8sanitizeEP21hb_sanitize_context_t
_ZNK2OT17ClassDefFormat2_4INS_6Layout10SmallTypesEE24intersected_class_glyphsEPK8hb_set_tjPS4_
_ZNK2OT17FeatureVariations8sanitizeEP21hb_sanitize_context_t
_ZNK2OT17PaintScaleUniform11paint_glyphEPNS_18hb_paint_context_tEj
_ZNK2OT17PaintScaleUniform8sanitizeEP21hb_sanitize_context_t
_ZNK2OT17hb_kern_machine_tI34hb_ot_shape_fallback_kern_driver_tE4kernEP9hb_font_tP11hb_buffer_tjb
_ZNK2OT17hb_kern_machine_tIN3AAT19KerxSubTableFormat0INS1_18KerxSubTableHeaderEE13accelerator_tEE4kernEP9hb_font_tP11hb_buffer_tjb
_ZNK2OT17hb_kern_machine_tIN3AAT19KerxSubTableFormat0INS_20KernOTSubTableHeaderEE13accelerator_tEE4kernEP9hb_font_tP11hb_buffer_tjb
_ZNK2OT17hb_kern_machine_tIN3AAT19KerxSubTableFormat0INS_21KernAATSubTableHeaderEE13accelerator_tEE4kernEP9hb_font_tP11hb_buffer_tjb
_ZNK2OT17hb_kern_machine_tIN3AAT19KerxSubTableFormat2INS1_18KerxSubTableHeaderEE13accelerator_tEE4kernEP9hb_font_tP11hb_buffer_tjb
_ZNK2OT17hb_kern_machine_tIN3AAT19KerxSubTableFormat2INS_20KernOTSubTableHeaderEE13accelerator_tEE4kernEP9hb_font_tP11hb_buffer_tjb
_ZNK2OT17hb_kern_machine_tIN3AAT19KerxSubTableFormat2INS_21KernAATSubTableHeaderEE13accelerator_tEE4kernEP9hb_font_tP11hb_buffer_tjb
_ZNK2OT17hb_kern_machine_tIN3AAT19KerxSubTableFormat6INS1_18KerxSubTableHeaderEE13accelerator_tEE4kernEP9hb_font_tP11hb_buffer_tjb
_ZNK2OT17hb_kern_machine_tINS_19KernSubTableFormat3INS_20KernOTSubTableHeaderEEEE4kernEP9hb_font_tP11hb_buffer_tjb
_ZNK2OT17hb_kern_machine_tINS_19KernSubTableFormat3INS_21KernAATSubTableHeaderEEEE4kernEP9hb_font_tP11hb_buffer_tjb
_ZNK2OT18GSUBGPOSVersion1_2INS_6Layout10SmallTypesEE8sanitizeINS1_9GPOS_impl9PosLookupEEEbP21hb_sanitize_context_t
_ZNK2OT18GSUBGPOSVersion1_2INS_6Layout10SmallTypesEE8sanitizeINS1_9GSUB_impl11SubstLookupEEEbP21hb_sanitize_context_t
_ZNK2OT18ItemVariationStore8sanitizeEP21hb_sanitize_context_t
_ZNK2OT18ItemVariationStore9get_deltaEjjPKijPf
_ZNK2OT18glyf_accelerator_t10get_pointsINS0_19points_aggregator_tEEEbP9hb_font_tjT_10hb_array_tIKiE
_ZNK2OT18glyf_accelerator_t10get_pointsINS_9glyf_impl14path_builder_tEEEbP9hb_font_tjT_10hb_array_tIKiE
_ZNK2OT18glyf_accelerator_t11get_extentsEP9hb_font_tjP18hb_glyph_extents_t
_ZNK2OT18glyf_accelerator_t13glyph_for_gidEjb
_ZNK2OT19ChainContextFormat35applyEPNS_21hb_ot_apply_context_tE
_ZNK2OT19ChainContextFormat37closureEPNS_20hb_closure_context_tE
_ZNK2OT19ChainContextFormat38sanitizeEP21hb_sanitize_context_t
_ZNK2OT20MarkGlyphSetsFormat116collect_coverageI24hb_set_digest_combiner_tI28hb_set_digest_bits_pattern_tImLj4EES2_IS3_ImLj0EES3_ImLj9EEEEEEvR11hb_vector_tIT_Lb0EE
_ZNK2OT21ChainContextFormat1_4INS_6Layout10SmallTypesEE7closureEPNS_20hb_closure_context_tE
_ZNK2OT21ChainContextFormat2_5INS_6Layout10SmallTypesEE7closureEPNS_20hb_closure_context_tE
_ZNK2OT21ChainContextFormat2_5INS_6Layout10SmallTypesEE8sanitizeEP21hb_sanitize_context_t
_ZNK2OT21ItemVarStoreInstancerclEjt
_ZNK2OT21ItemVarStoreInstancerclEjt.constprop.0
_ZNK2OT21ItemVarStoreInstancerclEjt.constprop.1
_ZNK2OT21PaintSkewAroundCenter11paint_glyphEPNS_18hb_paint_context_tEj
_ZNK2OT21PaintSkewAroundCenter8sanitizeEP21hb_sanitize_context_t
_ZNK2OT21hb_ot_apply_context_t21match_properties_markEjjj
_ZNK2OT22PaintScaleAroundCenter11paint_glyphEPNS_18hb_paint_context_tEj
_ZNK2OT22PaintScaleAroundCenter8sanitizeEP21hb_sanitize_context_t
_ZNK2OT23PaintRotateAroundCenter11paint_glyphEPNS_18hb_paint_context_tEj
_ZNK2OT23PaintRotateAroundCenter8sanitizeEP21hb_sanitize_context_t
_ZNK2OT29PaintScaleUniformAroundCenter11paint_glyphEPNS_18hb_paint_context_tEj
_ZNK2OT29PaintScaleUniformAroundCenter8sanitizeEP21hb_sanitize_context_t
_ZNK2OT4BASE8sanitizeEP21hb_sanitize_context_t
_ZNK2OT4CBDT13accelerator_t11get_extentsEP9hb_font_tjP18hb_glyph_extents_tb
_ZNK2OT4CBDT13accelerator_t13reference_pngEP9hb_font_tj
_ZNK2OT4CBLC8sanitizeEP21hb_sanitize_context_t
_ZNK2OT4COLR11paint_glyphEP9hb_font_tjP16hb_paint_funcs_tPvjjb
_ZNK2OT4COLR8sanitizeEP21hb_sanitize_context_t
_ZNK2OT4GDEF14is_blocklistedEP9hb_blob_tP9hb_face_t
_ZNK2OT4GDEF15get_glyph_propsEj
_ZNK2OT4MVAR7get_varEjPKij
_ZNK2OT4MVAR8sanitizeEP21hb_sanitize_context_t
_ZNK2OT4RuleINS_6Layout10SmallTypesEE5applyEPNS_21hb_ot_apply_context_tERKNS_25ContextApplyLookupContextE
_ZNK2OT4avar10map_coordsEPij
_ZNK2OT4cff113accelerator_t11get_extentsEP9hb_font_tjP18hb_glyph_extents_t
_ZNK2OT4cff113accelerator_t11paint_glyphEP9hb_font_tjP16hb_paint_funcs_tPvj
_ZNK2OT4cff113accelerator_t19get_glyph_from_nameEPKciPj
_ZNK2OT4cff113accelerator_t8get_pathEP9hb_font_tjR17hb_draw_session_t
_ZNK2OT4cff120accelerator_subset_t19get_seac_componentsEjPjS2_
_ZNK2OT4cff213accelerator_t11get_extentsEP9hb_font_tjP18hb_glyph_extents_t
_ZNK2OT4cff213accelerator_t11get_path_atEP9hb_font_tjR17hb_draw_session_t10hb_array_tIKiE
_ZNK2OT4cff213accelerator_t11paint_glyphEP9hb_font_tjP16hb_paint_funcs_tPvj
_ZNK2OT4cff213accelerator_t8get_pathEP9hb_font_tjR17hb_draw_session_t
_ZNK2OT4cmap13find_subtableEjj
_ZNK2OT4gvar13accelerator_t22apply_deltas_to_pointsEj10hb_array_tIKiES2_I15contour_point_tEb.isra.0
_ZNK2OT4gvar16sanitize_shallowEP21hb_sanitize_context_t
_ZNK2OT4kern8dispatchI21hb_sanitize_context_tJEEENT_8return_tEPS3_DpOT0_
_ZNK2OT4sbix13accelerator_t15get_png_extentsEP9hb_font_tjP18hb_glyph_extents_tb
_ZNK2OT4sbix8sanitizeEP21hb_sanitize_context_t
_ZNK2OT5Paint8dispatchI21hb_sanitize_context_tJEEENT_8return_tEPS3_DpOT0_
_ZNK2OT6Device11get_x_deltaEP9hb_font_tRKNS_18ItemVariationStoreEPf
_ZNK2OT6Device11get_y_deltaEP9hb_font_tRKNS_18ItemVariationStoreEPf
_ZNK2OT6Device8sanitizeEP21hb_sanitize_context_t
_ZNK2OT6Layout4GPOS14is_blocklistedEP9hb_blob_tP9hb_face_t
_ZNK2OT6Layout4GSUB14is_blocklistedEP9hb_blob_tP9hb_face_t
_ZNK2OT6Layout6Common8Coverage10intersectsEPK8hb_set_t
_ZNK2OT6Layout6Common8Coverage12get_coverageEj
_ZNK2OT6Layout6Common8Coverage13intersect_setIR8hb_set_tLPv0EEEvRKS4_OT_
_ZNK2OT6Layout6Common8Coverage14get_populationEv
_ZNK2OT6Layout6Common8Coverage16collect_coverageI24hb_set_digest_combiner_tI28hb_set_digest_bits_pattern_tImLj4EES4_IS5_ImLj0EES5_ImLj9EEEEEEbPT_.isra.0
_ZNK2OT6Layout6Common8Coverage16collect_coverageI24hb_set_digest_combiner_tI28hb_set_digest_bits_pattern_tImLj4EES4_IS5_ImLj0EES5_ImLj9EEEEEEbPT_.isra.0
_ZNK2OT6Layout6Common8Coverage16collect_coverageI24hb_set_digest_combiner_tI28hb_set_digest_bits_pattern_tImLj4EES4_IS5_ImLj0EES5_ImLj9EEEEEEbPT_.isra.0.cold
_ZNK2OT6Layout6Common8Coverage16collect_coverageI24hb_set_digest_combiner_tI28hb_set_digest_bits_pattern_tImLj4EES4_IS5_ImLj0EES5_ImLj9EEEEEEbPT_.isra.0.cold
_ZNK2OT6Layout6Common8Coverage16collect_coverageI8hb_set_tEEbPT_
_ZNK2OT6Layout9GPOS_impl11ValueFormat11apply_valueEPNS_21hb_ot_apply_context_tEPKNS1_9ValueBaseEPKNS_7IntTypeItLj2EEER19hb_glyph_position_t
_ZNK2OT6Layout9GPOS_impl11ValueFormat22sanitize_value_devicesEP21hb_sanitize_context_tPKNS1_9ValueBaseEPKNS_7IntTypeItLj2EEE
_ZNK2OT6Layout9GPOS_impl12AnchorMatrix8sanitizeEP21hb_sanitize_context_tj
_ZNK2OT6Layout9GPOS_impl16PairPosFormat1_3INS0_10SmallTypesEE5applyEPNS_21hb_ot_apply_context_tE
_ZNK2OT6Layout9GPOS_impl16PairPosFormat2_4INS0_10SmallTypesEE5applyEPNS_21hb_ot_apply_context_tE
_ZNK2OT6Layout9GPOS_impl16PairPosFormat2_4INS0_10SmallTypesEE8sanitizeEP21hb_sanitize_context_t
_ZNK2OT6Layout9GPOS_impl16SinglePosFormat115position_singleEP9hb_font_tP9hb_blob_t14hb_direction_tjR19hb_glyph_position_t.part.0
_ZNK2OT6Layout9GPOS_impl16SinglePosFormat215position_singleEP9hb_font_tP9hb_blob_t14hb_direction_tjR19hb_glyph_position_t
_ZNK2OT6Layout9GPOS_impl17CursivePosFormat15applyEPNS_21hb_ot_apply_context_tE
_ZNK2OT6Layout9GPOS_impl17PosLookupSubTable8dispatchI21hb_sanitize_context_tJEEENT_8return_tEPS5_jDpOT0_
_ZNK2OT6Layout9GPOS_impl17PosLookupSubTable8dispatchI29hb_position_single_dispatch_tJRP9hb_font_tRP9hb_blob_tR14hb_direction_tRjR19hb_glyph_position_tEEENT_8return_tEPSG_jDpOT0_.isra.0
_ZNK2OT6Layout9GPOS_impl17PosLookupSubTable8dispatchINS_27hb_collect_glyphs_context_tEJEEENT_8return_tEPS5_jDpOT0_.isra.0
_ZNK2OT6Layout9GPOS_impl17PosLookupSubTable8dispatchINS_33hb_accelerate_subtables_context_tEJEEENT_8return_tEPS5_jDpOT0_.isra.0
_ZNK2OT6Layout9GPOS_impl19MarkLigPosFormat1_2INS0_10SmallTypesEE5applyEPNS_21hb_ot_apply_context_tE
_ZNK2OT6Layout9GPOS_impl19MarkLigPosFormat1_2INS0_10SmallTypesEE8sanitizeEP21hb_sanitize_context_t
_ZNK2OT6Layout9GPOS_impl20MarkBasePosFormat1_2INS0_10SmallTypesEE5applyEPNS_21hb_ot_apply_context_tE
_ZNK2OT6Layout9GPOS_impl20MarkBasePosFormat1_2INS0_10SmallTypesEE8sanitizeEP21hb_sanitize_context_t
_ZNK2OT6Layout9GPOS_impl20MarkMarkPosFormat1_2INS0_10SmallTypesEE5applyEPNS_21hb_ot_apply_context_tE
_ZNK2OT6Layout9GPOS_impl20MarkMarkPosFormat1_2INS0_10SmallTypesEE8sanitizeEP21hb_sanitize_context_t
_ZNK2OT6Layout9GPOS_impl6Anchor10get_anchorEPNS_21hb_ot_apply_context_tEjPfS5_
_ZNK2OT6Layout9GPOS_impl6Anchor8sanitizeEP21hb_sanitize_context_t
_ZNK2OT6Layout9GPOS_impl9MarkArray5applyEPNS_21hb_ot_apply_context_tEjjRKNS1_12AnchorMatrixEjj
_ZNK2OT6Layout9GSUB_impl11LigatureSetINS0_10SmallTypesEE5applyEPNS_21hb_ot_apply_context_tE
_ZNK2OT6Layout9GSUB_impl19SubstLookupSubTable8dispatchI21hb_sanitize_context_tJEEENT_8return_tEPS5_jDpOT0_
_ZNK2OT6Layout9GSUB_impl19SubstLookupSubTable8dispatchI34hb_get_glyph_alternates_dispatch_tJRjS5_RPjS7_EEENT_8return_tEPS8_jDpOT0_.isra.0
_ZNK2OT6Layout9GSUB_impl19SubstLookupSubTable8dispatchINS_20hb_closure_context_tEJEEENT_8return_tEPS5_jDpOT0_.isra.0
_ZNK2OT6Layout9GSUB_impl19SubstLookupSubTable8dispatchINS_24hb_would_apply_context_tEJEEENT_8return_tEPS5_jDpOT0_
_ZNK2OT6Layout9GSUB_impl19SubstLookupSubTable8dispatchINS_26hb_have_non_1to1_context_tEJEEENT_8return_tEPS5_jDpOT0_.isra.0
_ZNK2OT6Layout9GSUB_impl19SubstLookupSubTable8dispatchINS_27hb_collect_glyphs_context_tEJEEENT_8return_tEPS5_jDpOT0_.isra.0
_ZNK2OT6Layout9GSUB_impl19SubstLookupSubTable8dispatchINS_33hb_accelerate_subtables_context_tEJEEENT_8return_tEPS5_jDpOT0_.isra.0
_ZNK2OT6Layout9GSUB_impl19SubstLookupSubTable8dispatchINS_33hb_accelerate_subtables_context_tEJEEENT_8return_tEPS5_jDpOT0_.isra.0
_ZNK2OT6Layout9GSUB_impl20SingleSubstFormat1_3INS0_10SmallTypesEE7closureEPNS_20hb_closure_context_tE
_ZNK2OT6Layout9GSUB_impl20SingleSubstFormat2_4INS0_10SmallTypesEE7closureEPNS_20hb_closure_context_tE
_ZNK2OT6Layout9GSUB_impl22LigatureSubstFormat1_2INS0_10SmallTypesEE14collect_glyphsEPNS_27hb_collect_glyphs_context_tE
_ZNK2OT6Layout9GSUB_impl22LigatureSubstFormat1_2INS0_10SmallTypesEE7closureEPNS_20hb_closure_context_tE
_ZNK2OT6Layout9GSUB_impl22MultipleSubstFormat1_2INS0_10SmallTypesEE14collect_glyphsEPNS_27hb_collect_glyphs_context_tE
_ZNK2OT6Layout9GSUB_impl22MultipleSubstFormat1_2INS0_10SmallTypesEE7closureEPNS_20hb_closure_context_tE
_ZNK2OT6Layout9GSUB_impl23AlternateSubstFormat1_2INS0_10SmallTypesEE14collect_glyphsEPNS_27hb_collect_glyphs_context_tE
_ZNK2OT6Layout9GSUB_impl23AlternateSubstFormat1_2INS0_10SmallTypesEE7closureEPNS_20hb_closure_context_tE
_ZNK2OT6Layout9GSUB_impl30ReverseChainSingleSubstFormat111would_applyEPNS_24hb_would_apply_context_tE.part.0.isra.0
_ZNK2OT6Layout9GSUB_impl30ReverseChainSingleSubstFormat15applyEPNS_21hb_ot_apply_context_tE
_ZNK2OT6Layout9GSUB_impl30ReverseChainSingleSubstFormat17closureEPNS_20hb_closure_context_tE
_ZNK2OT6Layout9GSUB_impl30ReverseChainSingleSubstFormat18sanitizeEP21hb_sanitize_context_t
_ZNK2OT6Layout9GSUB_impl8LigatureINS0_10SmallTypesEE5applyEPNS_21hb_ot_apply_context_tE
_ZNK2OT6Layout9GSUB_impl8SequenceINS0_10SmallTypesEE5applyEPNS_21hb_ot_apply_context_tE
_ZNK2OT6Lookup8sanitizeINS_6Layout9GPOS_impl17PosLookupSubTableEEEbP21hb_sanitize_context_t
_ZNK2OT6Lookup8sanitizeINS_6Layout9GSUB_impl19SubstLookupSubTableEEEbP21hb_sanitize_context_t
_ZNK2OT6MinMax8sanitizeEP21hb_sanitize_context_t
_ZNK2OT7ArrayOfINS_11HBGlyphID16ENS_7IntTypeItLj2EEEE16sanitize_shallowEP21hb_sanitize_context_t
_ZNK2OT7ArrayOfINS_5IndexENS_7IntTypeItLj2EEEE16sanitize_shallowEP21hb_sanitize_context_t
_ZNK2OT7ArrayOfINS_6Layout9GPOS_impl15EntryExitRecordENS_7IntTypeItLj2EEEE16sanitize_shallowEP21hb_sanitize_context_t
_ZNK2OT7ArrayOfINS_7IntTypeItLj2EEES2_E16sanitize_shallowEP21hb_sanitize_context_t
_ZNK2OT7Context8dispatchI21hb_sanitize_context_tJEEENT_8return_tEPS3_DpOT0_
_ZNK2OT7Context8dispatchINS_27hb_collect_glyphs_context_tEJEEENT_8return_tEPS3_DpOT0_.isra.0
_ZNK2OT7DataMap7get_tagEv
_ZNK2OT7Feature8sanitizeEP21hb_sanitize_context_tPKNS_25Record_sanitize_closure_tE
_ZNK2OT7RuleSetINS_6Layout10SmallTypesEE5applyEPNS_21hb_ot_apply_context_tERKNS_25ContextApplyLookupContextE
_ZNK2OT8CFFIndexINS_7IntTypeIjLj4EEEE8sanitizeEP21hb_sanitize_context_t
_ZNK2OT8CFFIndexINS_7IntTypeIjLj4EEEE9offset_atEj
_ZNK2OT8CFFIndexINS_7IntTypeItLj2EEEE8sanitizeEP21hb_sanitize_context_t
_ZNK2OT8CFFIndexINS_7IntTypeItLj2EEEE9offset_atEj
_ZNK2OT8CFFIndexINS_7IntTypeItLj2EEEEixEj
_ZNK2OT8ClassDef16intersects_classEPK8hb_set_tj
_ZNK2OT8ClassDef8sanitizeEP21hb_sanitize_context_t
_ZNK2OT8ClassDef9get_classEj
_ZNK2OT8GSUBGPOS10get_lookupEj.part.0
_ZNK2OT8GSUBGPOS17find_script_indexEjPj
_ZNK2OT8HVARVVAR8sanitizeEP21hb_sanitize_context_t
_ZNK2OT9Affine2x311paint_glyphEPNS_18hb_paint_context_tEj
_ZNK2OT9BaseCoord8sanitizeEP21hb_sanitize_context_t
_ZNK2OT9BaseCoord9get_coordEP9hb_font_tRKNS_18ItemVariationStoreE14hb_direction_t
_ZNK2OT9ChainRuleINS_6Layout10SmallTypesEE5applyEPNS_21hb_ot_apply_context_tERKNS_30ChainContextApplyLookupContextE
_ZNK2OT9Condition8evaluateINS_21ItemVarStoreInstancerEEEbPKijPT_
_ZNK2OT9Condition8sanitizeEP21hb_sanitize_context_t
_ZNK2OT9PaintSkew11paint_glyphEPNS_18hb_paint_context_tEj
_ZNK2OT9PaintSkew8sanitizeEP21hb_sanitize_context_t
_ZNK2OT9glyf_impl11SimpleGlyph18get_contour_pointsER22contour_point_vector_tb
_ZNK2OT9glyf_impl5Glyph10get_pointsINS_18glyf_accelerator_tEEEbP9hb_font_tRKT_R22contour_point_vector_tPS9_P16head_maxp_info_tPjbbb10hb_array_tIKiEP8hb_map_tjSE_
_ZNK3AAT10StateTableINS_13ObsoleteTypesENS_17InsertionSubtableIS1_E9EntryDataEE8sanitizeEP21hb_sanitize_context_tPj
_ZNK3AAT10StateTableINS_13ObsoleteTypesENS_18ContextualSubtableIS1_E9EntryDataEE8sanitizeEP21hb_sanitize_context_tPj
_ZNK3AAT10StateTableINS_13ObsoleteTypesEvE8sanitizeEP21hb_sanitize_context_tPj
_ZNK3AAT11FeatureName16get_feature_typeEv
_ZNK3AAT16LigatureSubtableINS_13ExtendedTypesEE5applyEPNS_22hb_aat_apply_context_tE.isra.0
_ZNK3AAT16LigatureSubtableINS_13ObsoleteTypesEE5applyEPNS_22hb_aat_apply_context_tE.isra.0
_ZNK3AAT19KerxSubTableFormat6INS_18KerxSubTableHeaderEE11get_kerningEjjPNS_22hb_aat_apply_context_tE
_ZNK3AAT21SubtableGlyphCoverage8sanitizeEP21hb_sanitize_context_tj
_ZNK3AAT4ankr8sanitizeEP21hb_sanitize_context_t
_ZNK3AAT4feat8sanitizeEP21hb_sanitize_context_t
_ZNK3AAT4ltag8sanitizeEP21hb_sanitize_context_t
_ZNK3AAT4trak8sanitizeEP21hb_sanitize_context_t
_ZNK3AAT5ChainINS_13ExtendedTypesEE5applyEPNS_22hb_aat_apply_context_tEPKNS_33hb_aat_layout_chain_accelerator_tE
_ZNK3AAT5ChainINS_13ObsoleteTypesEE5applyEPNS_22hb_aat_apply_context_tEPKNS_33hb_aat_layout_chain_accelerator_tE
_ZNK3AAT6LookupIN2OT11HBGlyphID16EE8sanitizeEP21hb_sanitize_context_t
_ZNK3AAT6LookupIN2OT7IntTypeIjLj4EEEE14collect_glyphsI24hb_set_digest_combiner_tI28hb_set_digest_bits_pattern_tImLj4EES6_IS7_ImLj0EES7_ImLj9EEEEEEvRT_j
_ZNK3AAT6LookupIN2OT7IntTypeIjLj4EEEE8sanitizeEP21hb_sanitize_context_t
_ZNK3AAT6LookupIN2OT7IntTypeItLj2EEEE14collect_glyphsI24hb_set_digest_combiner_tI28hb_set_digest_bits_pattern_tImLj4EES6_IS7_ImLj0EES7_ImLj9EEEEEEvRT_j
_ZNK3AAT6LookupIN2OT7IntTypeItLj2EEEE8sanitizeEP21hb_sanitize_context_t
_ZNK3AAT6LookupIN2OT7IntTypeItLj2EEEE9get_valueEjj
_ZNK3AAT6LookupIN2OT8OffsetToINS1_7ArrayOfINS_6AnchorENS1_7IntTypeIjLj4EEEEENS5_ItLj2EEEvLb0EEEE8sanitizeEP21hb_sanitize_context_tPKv
_ZNK3AAT8mortmorxINS_4mortENS_13ObsoleteTypesELj1836020340EE8sanitizeEP21hb_sanitize_context_t.part.0
_ZNK3AAT8mortmorxINS_4morxENS_13ExtendedTypesELj1836020344EE8sanitizeEP21hb_sanitize_context_t
_ZNK3AAT9KerxTableINS_4kerxEE23create_accelerator_dataEj
_ZNK3AAT9KerxTableINS_4kerxEE8sanitizeEP21hb_sanitize_context_t
_ZNK3CFF11FDSelect3_4IN2OT7IntTypeItLj2EEENS2_IhLj1EEEE8sanitizeEP21hb_sanitize_context_tj
_ZNK9hb_face_t15load_num_glyphsEv
_ZNK9hb_face_t9load_upemEv
_ZZ23hb_language_get_defaultE16default_language
_ZZL14compose_hebrewPK31hb_ot_shape_normalize_context_tjjPjE12sDageshForms
_ZZL14thai_pua_shapej13thai_action_tP9hb_font_tE11RD_mappings
_ZZL14thai_pua_shapej13thai_action_tP9hb_font_tE11SD_mappings
_ZZL14thai_pua_shapej13thai_action_tP9hb_font_tE11SL_mappings
_ZZL14thai_pua_shapej13thai_action_tP9hb_font_tE12SDL_mappings
_ZZL24hb_ot_tags_from_languagePKcS0_PjS1_E12last_tag_idx
_ZZL31_hb_face_builder_get_table_tagsPK9hb_face_tjPjS2_PvENUlPKvS5_E_4_FUNES5_S5_
_ZZN2OTL19unicode_to_macromanEjE7mapping
_ZZN2OTL19unicode_to_macromanEjE7mapping
__FRAME_END__
__GNU_EH_FRAME_HDR
__TMC_END__
__assert_fail@GLIBC_2.2.5
__cxa_atexit@GLIBC_2.2.5
__cxa_finalize@GLIBC_2.2.5
__do_global_dtors_aux
__do_global_dtors_aux_fini_array_entry
__dso_handle
__errno_location@GLIBC_2.2.5
__frame_dummy_init_array_entry
__fxstat64@GLIBC_2.2.5
__gmon_start__
__popcountdi2
_fini
_hb_CrapPool
_hb_NullPool
_hb_Null_AAT_Lookup
_hb_Null_AAT_SettingName
_hb_Null_OT_ClipRecord
_hb_Null_OT_CmapSubtableLongGroup
_hb_Null_OT_Index
_hb_Null_OT_LangSys
_hb_Null_OT_RangeRecord
_hb_Null_OT_VarIdx
_hb_Null_hb_buffer_t
_hb_Null_hb_draw_funcs_t
_hb_Null_hb_face_t
_hb_Null_hb_font_funcs_t
_hb_Null_hb_font_t
_hb_Null_hb_paint_funcs_t
_hb_Null_hb_unicode_funcs_t
_hb_fallback_shape
_hb_fallback_shaper_face_data_create
_hb_fallback_shaper_face_data_destroy
_hb_fallback_shaper_font_data_create
_hb_fallback_shaper_font_data_destroy
_hb_modified_combining_class
_hb_options
_hb_ot_shape
_hb_ot_shaper_arabic
_hb_ot_shaper_default
_hb_ot_shaper_dumber
_hb_ot_shaper_face_data_create
_hb_ot_shaper_face_data_destroy
_hb_ot_shaper_font_data_create
_hb_ot_shaper_font_data_destroy
_hb_ot_shaper_hangul
_hb_ot_shaper_hebrew
_hb_ot_shaper_indic
_hb_ot_shaper_khmer
_hb_ot_shaper_myanmar
_hb_ot_shaper_myanmar_zawgyi
_hb_ot_shaper_thai
_hb_ot_shaper_use
_init
atanf@GLIBC_2.2.5
atexit
calloc@GLIBC_2.2.5
close@GLIBC_2.2.5
completed.0
deregister_tm_clones
endchar_str
fclose@GLIBC_2.2.5
feof@GLIBC_2.2.5
ferror@GLIBC_2.2.5
fopen64@GLIBC_2.2.5
fputc@GLIBC_2.2.5
frame_dummy
fread@GLIBC_2.2.5
free@GLIBC_2.2.5
freelocale@GLIBC_2.3
fwrite@GLIBC_2.2.5
g_bytes_get_data
g_bytes_ref
g_bytes_unref
g_unichar_combining_class
g_unichar_compose
g_unichar_decompose
g_unichar_get_mirror_char
g_unichar_get_script
g_unichar_type
g_unicode_script_from_iso15924
g_unicode_script_to_iso15924
getenv@GLIBC_2.2.5
hb_aat_layout_feature_type_get_name_id
hb_aat_layout_feature_type_get_selector_infos
hb_aat_layout_get_feature_types
hb_aat_layout_has_positioning
hb_aat_layout_has_substitution
hb_aat_layout_has_tracking
hb_blob_copy_writable_or_fail
hb_blob_create
hb_blob_create_from_file
hb_blob_create_from_file_or_fail
hb_blob_create_or_fail
hb_blob_create_sub_blob
hb_blob_destroy
hb_blob_get_data
hb_blob_get_data_writable
hb_blob_get_empty
hb_blob_get_length
hb_blob_get_user_data
hb_blob_is_immutable
hb_blob_make_immutable
hb_blob_reference
hb_blob_set_user_data
hb_buffer_add
hb_buffer_add_codepoints
hb_buffer_add_latin1
hb_buffer_add_utf16
hb_buffer_add_utf32
hb_buffer_add_utf8
hb_buffer_allocation_successful
hb_buffer_append
hb_buffer_clear_contents
hb_buffer_create
hb_buffer_create_similar
hb_buffer_deserialize_glyphs
hb_buffer_deserialize_unicode
hb_buffer_destroy
hb_buffer_diff
hb_buffer_get_cluster_level
hb_buffer_get_content_type
hb_buffer_get_direction
hb_buffer_get_empty
hb_buffer_get_flags
hb_buffer_get_glyph_infos
hb_buffer_get_glyph_positions
hb_buffer_get_invisible_glyph
hb_buffer_get_language
hb_buffer_get_length
hb_buffer_get_not_found_glyph
hb_buffer_get_not_found_variation_selector_glyph
hb_buffer_get_random_state
hb_buffer_get_replacement_codepoint
hb_buffer_get_script
hb_buffer_get_segment_properties
hb_buffer_get_unicode_funcs
hb_buffer_get_user_data
hb_buffer_guess_segment_properties
hb_buffer_has_positions
hb_buffer_normalize_glyphs
hb_buffer_pre_allocate
hb_buffer_reference
hb_buffer_reset
hb_buffer_reverse
hb_buffer_reverse_clusters
hb_buffer_reverse_range
hb_buffer_serialize
hb_buffer_serialize_format_from_string
hb_buffer_serialize_format_to_string
hb_buffer_serialize_glyphs
hb_buffer_serialize_list_formats
hb_buffer_serialize_unicode
hb_buffer_set_cluster_level
hb_buffer_set_content_type
hb_buffer_set_direction
hb_buffer_set_flags
hb_buffer_set_invisible_glyph
hb_buffer_set_language
hb_buffer_set_length
hb_buffer_set_message_func
hb_buffer_set_not_found_glyph
hb_buffer_set_not_found_variation_selector_glyph
hb_buffer_set_random_state
hb_buffer_set_replacement_codepoint
hb_buffer_set_script
hb_buffer_set_segment_properties
hb_buffer_set_unicode_funcs
hb_buffer_set_user_data
hb_color_get_alpha
hb_color_get_blue
hb_color_get_green
hb_color_get_red
hb_color_line_get_color_stops
hb_color_line_get_extend
hb_direction_from_string
hb_direction_to_string
hb_draw_close_path
hb_draw_cubic_to
hb_draw_funcs_create
hb_draw_funcs_destroy
hb_draw_funcs_get_empty
hb_draw_funcs_get_user_data
hb_draw_funcs_is_immutable
hb_draw_funcs_make_immutable
hb_draw_funcs_reference
hb_draw_funcs_set_close_path_func
hb_draw_funcs_set_cubic_to_func
hb_draw_funcs_set_line_to_func
hb_draw_funcs_set_move_to_func
hb_draw_funcs_set_quadratic_to_func
hb_draw_funcs_set_user_data
hb_draw_line_to
hb_draw_move_to
hb_draw_quadratic_to
hb_face_builder_add_table
hb_face_builder_create
hb_face_builder_sort_tables
hb_face_collect_nominal_glyph_mapping
hb_face_collect_unicodes
hb_face_collect_variation_selectors
hb_face_collect_variation_unicodes
hb_face_count
hb_face_create
hb_face_create_for_tables
hb_face_create_from_file_or_fail
hb_face_create_or_fail
hb_face_destroy
hb_face_get_empty
hb_face_get_glyph_count
hb_face_get_index
hb_face_get_table_tags
hb_face_get_upem
hb_face_get_user_data
hb_face_is_immutable
hb_face_make_immutable
hb_face_reference
hb_face_reference_blob
hb_face_reference_table
hb_face_set_get_table_tags_func
hb_face_set_glyph_count
hb_face_set_index
hb_face_set_upem
hb_face_set_user_data
hb_feature_from_string
hb_feature_to_string
hb_font_add_glyph_origin_for_direction
hb_font_changed
hb_font_create
hb_font_create_sub_font
hb_font_destroy
hb_font_draw_glyph
hb_font_funcs_create
hb_font_funcs_destroy
hb_font_funcs_get_empty
hb_font_funcs_get_user_data
hb_font_funcs_is_immutable
hb_font_funcs_make_immutable
hb_font_funcs_reference
hb_font_funcs_set_draw_glyph_func
hb_font_funcs_set_font_h_extents_func
hb_font_funcs_set_font_v_extents_func
hb_font_funcs_set_glyph_contour_point_func
hb_font_funcs_set_glyph_extents_func
hb_font_funcs_set_glyph_from_name_func
hb_font_funcs_set_glyph_func
hb_font_funcs_set_glyph_h_advance_func
hb_font_funcs_set_glyph_h_advances_func
hb_font_funcs_set_glyph_h_kerning_func
hb_font_funcs_set_glyph_h_origin_func
hb_font_funcs_set_glyph_name_func
hb_font_funcs_set_glyph_shape_func
hb_font_funcs_set_glyph_v_advance_func
hb_font_funcs_set_glyph_v_advances_func
hb_font_funcs_set_glyph_v_kerning_func
hb_font_funcs_set_glyph_v_origin_func
hb_font_funcs_set_nominal_glyph_func
hb_font_funcs_set_nominal_glyphs_func
hb_font_funcs_set_paint_glyph_func
hb_font_funcs_set_user_data
hb_font_funcs_set_variation_glyph_func
hb_font_get_empty
hb_font_get_extents_for_direction
hb_font_get_face
hb_font_get_glyph
hb_font_get_glyph_advance_for_direction
hb_font_get_glyph_advances_for_direction
hb_font_get_glyph_contour_point
hb_font_get_glyph_contour_point_for_origin
hb_font_get_glyph_extents
hb_font_get_glyph_extents_for_origin
hb_font_get_glyph_from_name
hb_font_get_glyph_h_advance
hb_font_get_glyph_h_advances
hb_font_get_glyph_h_kerning
hb_font_get_glyph_h_origin
hb_font_get_glyph_kerning_for_direction
hb_font_get_glyph_name
hb_font_get_glyph_origin_for_direction
hb_font_get_glyph_shape
hb_font_get_glyph_v_advance
hb_font_get_glyph_v_advances
hb_font_get_glyph_v_kerning
hb_font_get_glyph_v_origin
hb_font_get_h_extents
hb_font_get_nominal_glyph
hb_font_get_nominal_glyphs
hb_font_get_parent
hb_font_get_ppem
hb_font_get_ptem
hb_font_get_scale
hb_font_get_serial
hb_font_get_synthetic_bold
hb_font_get_synthetic_slant
hb_font_get_user_data
hb_font_get_v_extents
hb_font_get_var_coords_design
hb_font_get_var_coords_normalized
hb_font_get_var_named_instance
hb_font_get_variation_glyph
hb_font_glyph_from_string
hb_font_glyph_to_string
hb_font_is_immutable
hb_font_make_immutable
hb_font_make_immutable.localalias
hb_font_paint_glyph
hb_font_reference
hb_font_set_face
hb_font_set_funcs
hb_font_set_funcs_data
hb_font_set_parent
hb_font_set_ppem
hb_font_set_ptem
hb_font_set_scale
hb_font_set_synthetic_bold
hb_font_set_synthetic_slant
hb_font_set_user_data
hb_font_set_var_coords_design
hb_font_set_var_coords_normalized
hb_font_set_var_named_instance
hb_font_set_variation
hb_font_set_variations
hb_font_subtract_glyph_origin_for_direction
hb_ft_face_create
hb_ft_face_create_cached
hb_ft_face_create_from_file_or_fail
hb_ft_face_create_referenced
hb_ft_font_changed
hb_ft_font_create
hb_ft_font_create_referenced
hb_ft_font_get_face
hb_ft_font_get_load_flags
hb_ft_font_lock_face
hb_ft_font_set_funcs
hb_ft_font_set_load_flags
hb_ft_font_unlock_face
hb_ft_hb_font_changed
hb_glib_blob_create
hb_glib_get_unicode_funcs
hb_glib_script_from_script
hb_glib_script_to_script
hb_glyph_info_get_glyph_flags
hb_language_from_string
hb_language_get_default
hb_language_matches
hb_language_to_string
hb_map_allocation_successful
hb_map_clear
hb_map_copy
hb_map_create
hb_map_del
hb_map_destroy
hb_map_get
hb_map_get_empty
hb_map_get_population
hb_map_get_user_data
hb_map_has
hb_map_hash
hb_map_is_empty
hb_map_is_equal
hb_map_keys
hb_map_next
hb_map_reference
hb_map_set
hb_map_set_user_data
hb_map_update
hb_map_values
hb_ot_color_glyph_get_layers
hb_ot_color_glyph_has_paint
hb_ot_color_glyph_reference_png
hb_ot_color_glyph_reference_svg
hb_ot_color_has_layers
hb_ot_color_has_paint
hb_ot_color_has_palettes
hb_ot_color_has_png
hb_ot_color_has_svg
hb_ot_color_palette_color_get_name_id
hb_ot_color_palette_get_colors
hb_ot_color_palette_get_count
hb_ot_color_palette_get_flags
hb_ot_color_palette_get_name_id
hb_ot_font_set_funcs
hb_ot_layout_collect_features
hb_ot_layout_collect_features_map
hb_ot_layout_collect_lookups
hb_ot_layout_feature_get_characters
hb_ot_layout_feature_get_lookups
hb_ot_layout_feature_get_name_ids
hb_ot_layout_feature_with_variations_get_lookups
hb_ot_layout_get_attach_points
hb_ot_layout_get_baseline
hb_ot_layout_get_baseline2
hb_ot_layout_get_baseline_with_fallback
hb_ot_layout_get_baseline_with_fallback2
hb_ot_layout_get_font_extents
hb_ot_layout_get_font_extents2
hb_ot_layout_get_glyph_class
hb_ot_layout_get_glyphs_in_class
hb_ot_layout_get_horizontal_baseline_tag_for_script
hb_ot_layout_get_ligature_carets
hb_ot_layout_get_size_params
hb_ot_layout_has_glyph_classes
hb_ot_layout_has_positioning
hb_ot_layout_has_substitution
hb_ot_layout_language_find_feature
hb_ot_layout_language_get_feature_indexes
hb_ot_layout_language_get_feature_tags
hb_ot_layout_language_get_required_feature
hb_ot_layout_language_get_required_feature_index
hb_ot_layout_lookup_collect_glyphs
hb_ot_layout_lookup_get_glyph_alternates
hb_ot_layout_lookup_get_optical_bound
hb_ot_layout_lookup_substitute_closure
hb_ot_layout_lookup_would_substitute
hb_ot_layout_lookups_substitute_closure
hb_ot_layout_script_find_language
hb_ot_layout_script_get_language_tags
hb_ot_layout_script_select_language
hb_ot_layout_script_select_language2
hb_ot_layout_table_choose_script
hb_ot_layout_table_find_feature_variations
hb_ot_layout_table_find_script
hb_ot_layout_table_get_feature_tags
hb_ot_layout_table_get_lookup_count
hb_ot_layout_table_get_script_tags
hb_ot_layout_table_select_script
hb_ot_math_get_constant
hb_ot_math_get_constant.cold
hb_ot_math_get_glyph_assembly
hb_ot_math_get_glyph_italics_correction
hb_ot_math_get_glyph_kerning
hb_ot_math_get_glyph_kernings
hb_ot_math_get_glyph_top_accent_attachment
hb_ot_math_get_glyph_variants
hb_ot_math_get_min_connector_overlap
hb_ot_math_has_data
hb_ot_math_is_glyph_extended_shape
hb_ot_meta_get_entry_tags
hb_ot_meta_reference_entry
hb_ot_metrics_get_position
hb_ot_metrics_get_position_with_fallback
hb_ot_metrics_get_position_with_fallback.localalias
hb_ot_metrics_get_variation
hb_ot_metrics_get_x_variation
hb_ot_metrics_get_y_variation
hb_ot_name_get_utf16
hb_ot_name_get_utf32
hb_ot_name_get_utf8
hb_ot_name_list_names
hb_ot_shape_glyphs_closure
hb_ot_shape_plan_collect_lookups
hb_ot_tag_from_language
hb_ot_tag_to_language
hb_ot_tag_to_script
hb_ot_tags_from_script
hb_ot_tags_from_script_and_language
hb_ot_tags_to_script_and_language
hb_ot_var_find_axis
hb_ot_var_find_axis_info
hb_ot_var_get_axes
hb_ot_var_get_axis_count
hb_ot_var_get_axis_infos
hb_ot_var_get_named_instance_count
hb_ot_var_has_data
hb_ot_var_named_instance_get_design_coords
hb_ot_var_named_instance_get_postscript_name_id
hb_ot_var_named_instance_get_subfamily_name_id
hb_ot_var_normalize_coords
hb_ot_var_normalize_variations
hb_paint_color
hb_paint_color_glyph
hb_paint_custom_palette_color
hb_paint_funcs_create
hb_paint_funcs_destroy
hb_paint_funcs_get_empty
hb_paint_funcs_get_user_data
hb_paint_funcs_is_immutable
hb_paint_funcs_make_immutable
hb_paint_funcs_reference
hb_paint_funcs_set_color_func
hb_paint_funcs_set_color_glyph_func
hb_paint_funcs_set_custom_palette_color_func
hb_paint_funcs_set_image_func
hb_paint_funcs_set_linear_gradient_func
hb_paint_funcs_set_pop_clip_func
hb_paint_funcs_set_pop_group_func
hb_paint_funcs_set_pop_transform_func
hb_paint_funcs_set_push_clip_glyph_func
hb_paint_funcs_set_push_clip_rectangle_func
hb_paint_funcs_set_push_group_func
hb_paint_funcs_set_push_transform_func
hb_paint_funcs_set_radial_gradient_func
hb_paint_funcs_set_sweep_gradient_func
hb_paint_funcs_set_user_data
hb_paint_image
hb_paint_linear_gradient
hb_paint_pop_clip
hb_paint_pop_group
hb_paint_pop_transform
hb_paint_push_clip_glyph
hb_paint_push_clip_rectangle
hb_paint_push_group
hb_paint_push_transform
hb_paint_radial_gradient
hb_paint_sweep_gradient
hb_script_from_iso15924_tag
hb_script_from_string
hb_script_get_horizontal_direction
hb_script_to_iso15924_tag
hb_segment_properties_equal
hb_segment_properties_hash
hb_segment_properties_overlay
hb_set_add
hb_set_add_range
hb_set_add_sorted_array
hb_set_allocation_successful
hb_set_clear
hb_set_copy
hb_set_create
hb_set_del
hb_set_del_range
hb_set_destroy
hb_set_get_empty
hb_set_get_max
hb_set_get_min
hb_set_get_population
hb_set_get_user_data
hb_set_has
hb_set_hash
hb_set_intersect
hb_set_invert
hb_set_is_empty
hb_set_is_equal
hb_set_is_inverted
hb_set_is_subset
hb_set_next
hb_set_next_many
hb_set_next_range
hb_set_previous
hb_set_previous_range
hb_set_reference
hb_set_set
hb_set_set_user_data
hb_set_subtract
hb_set_symmetric_difference
hb_set_union
hb_shape
hb_shape_full
hb_shape_list_shapers
hb_shape_plan_create
hb_shape_plan_create2
hb_shape_plan_create_cached
hb_shape_plan_create_cached2
hb_shape_plan_destroy
hb_shape_plan_execute
hb_shape_plan_get_empty
hb_shape_plan_get_shaper
hb_shape_plan_get_user_data
hb_shape_plan_reference
hb_shape_plan_set_user_data
hb_style_get_value
hb_style_get_value.localalias
hb_tag_from_string
hb_tag_to_string
hb_ucd_get_unicode_funcs
hb_unicode_combining_class
hb_unicode_compose
hb_unicode_decompose
hb_unicode_decompose_compatibility
hb_unicode_eastasian_width
hb_unicode_funcs_create
hb_unicode_funcs_destroy
hb_unicode_funcs_destroy.localalias
hb_unicode_funcs_get_default
hb_unicode_funcs_get_empty
hb_unicode_funcs_get_parent
hb_unicode_funcs_get_user_data
hb_unicode_funcs_is_immutable
hb_unicode_funcs_make_immutable
hb_unicode_funcs_reference
hb_unicode_funcs_set_combining_class_func
hb_unicode_funcs_set_compose_func
hb_unicode_funcs_set_decompose_compatibility_func
hb_unicode_funcs_set_decompose_func
hb_unicode_funcs_set_eastasian_width_func
hb_unicode_funcs_set_general_category_func
hb_unicode_funcs_set_mirroring_func
hb_unicode_funcs_set_script_func
hb_unicode_funcs_set_user_data
hb_unicode_general_category
hb_unicode_mirroring
hb_unicode_script
hb_variation_from_string
hb_variation_to_string
hb_version
hb_version_atleast
hb_version_string
hypotf@GLIBC_2.2.5
malloc@GLIBC_2.2.5
memcmp@GLIBC_2.2.5
memcpy@GLIBC_2.14
memmove@GLIBC_2.2.5
memset@GLIBC_2.2.5
minus_1
mmap64@GLIBC_2.2.5
mprotect@GLIBC_2.2.5
munmap@GLIBC_2.2.5
newlocale@GLIBC_2.3
open64@GLIBC_2.2.5
pthread_mutex_destroy@GLIBC_2.2.5
pthread_mutex_init@GLIBC_2.2.5
pthread_mutex_lock@GLIBC_2.2.5
pthread_mutex_unlock@GLIBC_2.2.5
realloc@GLIBC_2.2.5
register_tm_clones
setlocale@GLIBC_2.2.5
sincosf@GLIBC_2.2.5
snprintf@GLIBC_2.2.5
stderr@GLIBC_2.2.5
strchr@GLIBC_2.2.5
strcmp@GLIBC_2.2.5
strerror@GLIBC_2.2.5
strlen@GLIBC_2.2.5
strncmp@GLIBC_2.2.5
strncpy@GLIBC_2.2.5
strrchr@GLIBC_2.2.5
strstr@GLIBC_2.2.5
strtol@GLIBC_2.2.5
strtoul@GLIBC_2.2.5
sysconf@GLIBC_2.2.5
tanf@GLIBC_2.2.5
uselocale@GLIBC_2.3
vfprintf@GLIBC_2.2.5
vsnprintf@GLIBC_2.2.5
